(dp1
S'helvetica-bold-10.pil'
p2
(dp3
S'\177'
I0
sS'}'
I5
sS'{'
I5
sS'y'
I6
sS'w'
I8
sS'u'
I6
sS's'
I6
sS'q'
I6
sS'o'
I6
sS'm'
I9
sS'k'
I6
sS'i'
I3
sS'g'
I6
sS'e'
I6
sS'c'
I5
sS'a'
I6
sS'_'
I6
sS']'
I4
sS'['
I4
sS'Y'
I9
sS'W'
I11
sS'U'
I7
sS'S'
I7
sS'Q'
I8
sS'O'
I8
sS'M'
I10
sS'K'
I7
sS'I'
I3
sS'G'
I8
sS'E'
I6
sS'C'
I8
sS'A'
I8
sS'?'
I6
sS'='
I6
sS';'
I3
sS'9'
I6
sS'7'
I6
sS'5'
I6
sS'3'
I6
sS'1'
I6
sS'/'
I4
sS'-'
I7
sS'+'
I6
sS')'
I4
sS"'"
I3
sS'%'
I8
sS'#'
I6
sS'!'
I4
sS'~'
I6
sS'|'
I3
sS'z'
I6
sS'x'
I7
sS'v'
I6
sS't'
I4
sS'r'
I4
sS'p'
I6
sS'n'
I6
sS'l'
I3
sS'j'
I3
sS'h'
I6
sS'f'
I4
sS'd'
I6
sS'b'
I6
sS'`'
I3
sS'^'
I5
sS'\\'
I4
sS'Z'
I7
sS'X'
I8
sS'V'
I8
sS'T'
I7
sS'R'
I7
sS'P'
I7
sS'N'
I8
sS'L'
I6
sS'J'
I6
sS'H'
I7
sS'F'
I6
sS'D'
I7
sS'B'
I7
sS'@'
I11
sS'>'
I5
sS'<'
I5
sS':'
I3
sS'8'
I6
sS'6'
I6
sS'4'
I6
sS'2'
I6
sS'0'
I6
sS'.'
I3
sS','
I3
sS'*'
I4
sS'('
I4
sS'&'
I8
sS'$'
I6
sS'"'
I5
sS' '
I3
ssS'courier-bold-24.pil'
p4
(dp5
S'\177'
I0
sS'}'
I15
sS'{'
I15
sS'y'
I15
sS'w'
I15
sS'u'
I15
sS's'
I15
sS'q'
I15
sS'o'
I15
sS'm'
I15
sS'k'
I15
sS'i'
I15
sS'g'
I15
sS'e'
I15
sS'c'
I15
sS'a'
I15
sS'_'
I15
sS']'
I15
sS'['
I15
sS'Y'
I15
sS'W'
I15
sS'U'
I15
sS'S'
I15
sS'Q'
I15
sS'O'
I15
sS'M'
I15
sS'K'
I15
sS'I'
I15
sS'G'
I15
sS'E'
I15
sS'C'
I15
sS'A'
I15
sS'?'
I15
sS'='
I15
sS';'
I15
sS'9'
I15
sS'7'
I15
sS'5'
I15
sS'3'
I15
sS'1'
I15
sS'/'
I15
sS'-'
I15
sS'+'
I15
sS')'
I15
sS"'"
I15
sS'%'
I15
sS'#'
I15
sS'!'
I15
sS'~'
I15
sS'|'
I15
sS'z'
I15
sS'x'
I15
sS'v'
I15
sS't'
I15
sS'r'
I15
sS'p'
I15
sS'n'
I15
sS'l'
I15
sS'j'
I15
sS'h'
I15
sS'f'
I15
sS'd'
I15
sS'b'
I15
sS'`'
I15
sS'^'
I15
sS'\\'
I15
sS'Z'
I15
sS'X'
I15
sS'V'
I15
sS'T'
I15
sS'R'
I15
sS'P'
I15
sS'N'
I15
sS'L'
I15
sS'J'
I15
sS'H'
I15
sS'F'
I15
sS'D'
I15
sS'B'
I15
sS'@'
I15
sS'>'
I15
sS'<'
I15
sS':'
I15
sS'8'
I15
sS'6'
I15
sS'4'
I15
sS'2'
I15
sS'0'
I15
sS'.'
I15
sS','
I15
sS'*'
I15
sS'('
I15
sS'&'
I15
sS'$'
I15
sS'"'
I15
sS' '
I15
ssS'courier-24.pil'
p6
(dp7
S'\177'
I0
sS'}'
I15
sS'{'
I15
sS'y'
I15
sS'w'
I15
sS'u'
I15
sS's'
I15
sS'q'
I15
sS'o'
I15
sS'm'
I15
sS'k'
I15
sS'i'
I15
sS'g'
I15
sS'e'
I15
sS'c'
I15
sS'a'
I15
sS'_'
I15
sS']'
I15
sS'['
I15
sS'Y'
I15
sS'W'
I15
sS'U'
I15
sS'S'
I15
sS'Q'
I15
sS'O'
I15
sS'M'
I15
sS'K'
I15
sS'I'
I15
sS'G'
I15
sS'E'
I15
sS'C'
I15
sS'A'
I15
sS'?'
I15
sS'='
I15
sS';'
I15
sS'9'
I15
sS'7'
I15
sS'5'
I15
sS'3'
I15
sS'1'
I15
sS'/'
I15
sS'-'
I15
sS'+'
I15
sS')'
I15
sS"'"
I15
sS'%'
I15
sS'#'
I15
sS'!'
I15
sS'~'
I15
sS'|'
I15
sS'z'
I15
sS'x'
I15
sS'v'
I15
sS't'
I15
sS'r'
I15
sS'p'
I15
sS'n'
I15
sS'l'
I15
sS'j'
I15
sS'h'
I15
sS'f'
I15
sS'd'
I15
sS'b'
I15
sS'`'
I15
sS'^'
I15
sS'\\'
I15
sS'Z'
I15
sS'X'
I15
sS'V'
I15
sS'T'
I15
sS'R'
I15
sS'P'
I15
sS'N'
I15
sS'L'
I15
sS'J'
I15
sS'H'
I15
sS'F'
I15
sS'D'
I15
sS'B'
I15
sS'@'
I15
sS'>'
I15
sS'<'
I15
sS':'
I15
sS'8'
I15
sS'6'
I15
sS'4'
I15
sS'2'
I15
sS'0'
I15
sS'.'
I15
sS','
I15
sS'*'
I15
sS'('
I15
sS'&'
I15
sS'$'
I15
sS'"'
I15
sS' '
I15
ssS'symbol-14.pil'
p8
(dp9
S'\177'
I0
sS'}'
I7
sS'{'
I7
sS'y'
I9
sS'w'
I11
sS'u'
I8
sS's'
I8
sS'q'
I7
sS'o'
I8
sS'm'
I8
sS'k'
I8
sS'i'
I5
sS'g'
I6
sS'e'
I6
sS'c'
I8
sS'a'
I9
sS'_'
I7
sS']'
I5
sS'['
I5
sS'Y'
I11
sS'W'
I11
sS'U'
I9
sS'S'
I9
sS'Q'
I10
sS'O'
I10
sS'M'
I13
sS'K'
I10
sS'I'
I5
sS'G'
I9
sS'E'
I9
sS'C'
I11
sS'A'
I11
sS'?'
I6
sS'='
I8
sS';'
I4
sS'9'
I7
sS'7'
I7
sS'5'
I7
sS'3'
I7
sS'1'
I7
sS'/'
I4
sS'-'
I8
sS'+'
I8
sS')'
I5
sS"'"
I6
sS'%'
I12
sS'#'
I7
sS'!'
I5
sS'~'
I8
sS'|'
I3
sS'z'
I7
sS'x'
I7
sS'v'
I11
sS't'
I6
sS'r'
I8
sS'p'
I8
sS'n'
I8
sS'l'
I8
sS'j'
I9
sS'h'
I8
sS'f'
I9
sS'd'
I7
sS'b'
I8
sS'`'
I7
sS'^'
I10
sS'\\'
I10
sS'Z'
I9
sS'X'
I9
sS'V'
I7
sS'T'
I9
sS'R'
I8
sS'P'
I11
sS'N'
I11
sS'L'
I10
sS'J'
I9
sS'H'
I11
sS'F'
I11
sS'D'
I9
sS'B'
I9
sS'@'
I8
sS'>'
I8
sS'<'
I8
sS':'
I4
sS'8'
I7
sS'6'
I7
sS'4'
I7
sS'2'
I7
sS'0'
I7
sS'.'
I3
sS','
I3
sS'*'
I7
sS'('
I5
sS'&'
I11
sS'$'
I8
sS'"'
I9
sS' '
I4
ssS'times-18.pil'
p10
(dp11
S'\177'
I0
sS'}'
I9
sS'{'
I9
sS'y'
I8
sS'w'
I12
sS'u'
I9
sS's'
I7
sS'q'
I9
sS'o'
I9
sS'm'
I15
sS'k'
I9
sS'i'
I5
sS'g'
I8
sS'e'
I8
sS'c'
I8
sS'a'
I8
sS'_'
I9
sS']'
I6
sS'['
I6
sS'Y'
I12
sS'W'
I18
sS'U'
I13
sS'S'
I10
sS'Q'
I14
sS'O'
I14
sS'M'
I16
sS'K'
I13
sS'I'
I6
sS'G'
I14
sS'E'
I11
sS'C'
I12
sS'A'
I15
sS'?'
I8
sS'='
I10
sS';'
I4
sS'9'
I9
sS'7'
I9
sS'5'
I9
sS'3'
I9
sS'1'
I9
sS'/'
I5
sS'-'
I10
sS'+'
I10
sS')'
I7
sS"'"
I5
sS'%'
I15
sS'#'
I10
sS'!'
I4
sS'~'
I11
sS'|'
I3
sS'z'
I8
sS'x'
I9
sS'v'
I9
sS't'
I6
sS'r'
I7
sS'p'
I9
sS'n'
I10
sS'l'
I5
sS'j'
I5
sS'h'
I10
sS'f'
I6
sS'd'
I9
sS'b'
I9
sS'`'
I5
sS'^'
I9
sS'\\'
I5
sS'Z'
I12
sS'X'
I12
sS'V'
I13
sS'T'
I12
sS'R'
I12
sS'P'
I10
sS'N'
I13
sS'L'
I11
sS'J'
I7
sS'H'
I13
sS'F'
I11
sS'D'
I13
sS'B'
I12
sS'@'
I17
sS'>'
I11
sS'<'
I11
sS':'
I4
sS'8'
I9
sS'6'
I9
sS'4'
I9
sS'2'
I9
sS'0'
I9
sS'.'
I4
sS','
I4
sS'*'
I9
sS'('
I7
sS'&'
I14
sS'$'
I9
sS'"'
I8
sS' '
I4
ssS'times-10.pil'
p12
(dp13
S'\177'
I0
sS'}'
I4
sS'{'
I4
sS'y'
I5
sS'w'
I8
sS'u'
I5
sS's'
I4
sS'q'
I5
sS'o'
I5
sS'm'
I8
sS'k'
I5
sS'i'
I3
sS'g'
I5
sS'e'
I4
sS'c'
I4
sS'a'
I4
sS'_'
I5
sS']'
I3
sS'['
I3
sS'Y'
I8
sS'W'
I10
sS'U'
I8
sS'S'
I5
sS'Q'
I7
sS'O'
I7
sS'M'
I10
sS'K'
I7
sS'I'
I4
sS'G'
I7
sS'E'
I6
sS'C'
I7
sS'A'
I8
sS'?'
I4
sS'='
I6
sS';'
I3
sS'9'
I5
sS'7'
I5
sS'5'
I5
sS'3'
I5
sS'1'
I5
sS'/'
I3
sS'-'
I7
sS'+'
I6
sS')'
I4
sS"'"
I3
sS'%'
I8
sS'#'
I5
sS'!'
I3
sS'~'
I7
sS'|'
I2
sS'z'
I5
sS'x'
I6
sS'v'
I5
sS't'
I4
sS'r'
I4
sS'p'
I5
sS'n'
I5
sS'l'
I4
sS'j'
I3
sS'h'
I5
sS'f'
I4
sS'd'
I5
sS'b'
I5
sS'`'
I3
sS'^'
I5
sS'\\'
I3
sS'Z'
I6
sS'X'
I8
sS'V'
I8
sS'T'
I6
sS'R'
I7
sS'P'
I6
sS'N'
I8
sS'L'
I6
sS'J'
I4
sS'H'
I8
sS'F'
I6
sS'D'
I7
sS'B'
I6
sS'@'
I9
sS'>'
I5
sS'<'
I5
sS':'
I3
sS'8'
I5
sS'6'
I5
sS'4'
I5
sS'2'
I5
sS'0'
I5
sS'.'
I3
sS','
I3
sS'*'
I5
sS'('
I4
sS'&'
I8
sS'$'
I5
sS'"'
I4
sS' '
I2
ssS'symbol-10.pil'
p14
(dp15
S'\177'
I0
sS'}'
I5
sS'{'
I5
sS'y'
I7
sS'w'
I8
sS'u'
I6
sS's'
I6
sS'q'
I5
sS'o'
I5
sS'm'
I6
sS'k'
I6
sS'i'
I4
sS'g'
I6
sS'e'
I5
sS'c'
I6
sS'a'
I7
sS'_'
I5
sS']'
I3
sS'['
I3
sS'Y'
I9
sS'W'
I9
sS'U'
I8
sS'S'
I6
sS'Q'
I7
sS'O'
I7
sS'M'
I10
sS'K'
I7
sS'I'
I3
sS'G'
I6
sS'E'
I6
sS'C'
I8
sS'A'
I8
sS'?'
I5
sS'='
I6
sS';'
I2
sS'9'
I5
sS'7'
I5
sS'5'
I5
sS'3'
I5
sS'1'
I5
sS'/'
I3
sS'-'
I6
sS'+'
I6
sS')'
I4
sS"'"
I5
sS'%'
I8
sS'#'
I5
sS'!'
I3
sS'~'
I6
sS'|'
I2
sS'z'
I5
sS'x'
I5
sS'v'
I8
sS't'
I5
sS'r'
I5
sS'p'
I6
sS'n'
I6
sS'l'
I6
sS'j'
I6
sS'h'
I6
sS'f'
I6
sS'd'
I5
sS'b'
I5
sS'`'
I5
sS'^'
I7
sS'\\'
I7
sS'Z'
I6
sS'X'
I7
sS'V'
I5
sS'T'
I6
sS'R'
I6
sS'P'
I8
sS'N'
I8
sS'L'
I7
sS'J'
I7
sS'H'
I8
sS'F'
I8
sS'D'
I7
sS'B'
I6
sS'@'
I6
sS'>'
I6
sS'<'
I7
sS':'
I2
sS'8'
I5
sS'6'
I5
sS'4'
I5
sS'2'
I5
sS'0'
I5
sS'.'
I2
sS','
I2
sS'*'
I5
sS'('
I4
sS'&'
I7
sS'$'
I6
sS'"'
I7
sS' '
I3
ssS'symbol-8.pil'
p16
(dp17
S'\177'
I0
sS'}'
I4
sS'{'
I4
sS'y'
I6
sS'w'
I6
sS'u'
I5
sS's'
I5
sS'q'
I4
sS'o'
I4
sS'm'
I5
sS'k'
I5
sS'i'
I3
sS'g'
I5
sS'e'
I4
sS'c'
I5
sS'a'
I6
sS'_'
I4
sS']'
I2
sS'['
I2
sS'Y'
I7
sS'W'
I7
sS'U'
I6
sS'S'
I5
sS'Q'
I6
sS'O'
I6
sS'M'
I8
sS'K'
I6
sS'I'
I2
sS'G'
I5
sS'E'
I5
sS'C'
I6
sS'A'
I6
sS'?'
I4
sS'='
I5
sS';'
I2
sS'9'
I4
sS'7'
I4
sS'5'
I4
sS'3'
I4
sS'1'
I4
sS'/'
I2
sS'-'
I5
sS'+'
I5
sS')'
I3
sS"'"
I4
sS'%'
I6
sS'#'
I4
sS'!'
I2
sS'~'
I5
sS'|'
I2
sS'z'
I4
sS'x'
I4
sS'v'
I6
sS't'
I4
sS'r'
I4
sS'p'
I5
sS'n'
I5
sS'l'
I5
sS'j'
I5
sS'h'
I5
sS'f'
I5
sS'd'
I4
sS'b'
I4
sS'`'
I4
sS'^'
I6
sS'\\'
I6
sS'Z'
I5
sS'X'
I6
sS'V'
I4
sS'T'
I5
sS'R'
I5
sS'P'
I6
sS'N'
I6
sS'L'
I6
sS'J'
I6
sS'H'
I6
sS'F'
I6
sS'D'
I6
sS'B'
I5
sS'@'
I5
sS'>'
I5
sS'<'
I6
sS':'
I2
sS'8'
I4
sS'6'
I4
sS'4'
I4
sS'2'
I4
sS'0'
I4
sS'.'
I2
sS','
I2
sS'*'
I4
sS'('
I3
sS'&'
I6
sS'$'
I5
sS'"'
I6
sS' '
I2
ssS'helvetica-24.pil'
p18
(dp19
S'\177'
I0
sS'}'
I8
sS'{'
I8
sS'y'
I13
sS'w'
I18
sS'u'
I14
sS's'
I12
sS'q'
I14
sS'o'
I13
sS'm'
I20
sS'k'
I12
sS'i'
I6
sS'g'
I14
sS'e'
I13
sS'c'
I12
sS'a'
I13
sS'_'
I14
sS']'
I7
sS'['
I7
sS'Y'
I16
sS'W'
I22
sS'U'
I18
sS'S'
I16
sS'Q'
I18
sS'O'
I18
sS'M'
I21
sS'K'
I18
sS'I'
I8
sS'G'
I19
sS'E'
I16
sS'C'
I18
sS'A'
I17
sS'?'
I12
sS'='
I15
sS';'
I6
sS'9'
I13
sS'7'
I13
sS'5'
I13
sS'3'
I13
sS'1'
I13
sS'/'
I7
sS'-'
I15
sS'+'
I14
sS')'
I8
sS"'"
I6
sS'%'
I22
sS'#'
I14
sS'!'
I6
sS'~'
I14
sS'|'
I6
sS'z'
I12
sS'x'
I12
sS'v'
I13
sS't'
I8
sS'r'
I9
sS'p'
I14
sS'n'
I14
sS'l'
I6
sS'j'
I6
sS'h'
I13
sS'f'
I8
sS'd'
I14
sS'b'
I14
sS'`'
I6
sS'^'
I12
sS'\\'
I7
sS'Z'
I15
sS'X'
I17
sS'V'
I17
sS'T'
I16
sS'R'
I17
sS'P'
I16
sS'N'
I18
sS'L'
I14
sS'J'
I13
sS'H'
I18
sS'F'
I14
sS'D'
I18
sS'B'
I17
sS'@'
I25
sS'>'
I15
sS'<'
I15
sS':'
I6
sS'8'
I13
sS'6'
I13
sS'4'
I13
sS'2'
I13
sS'0'
I13
sS'.'
I6
sS','
I6
sS'*'
I10
sS'('
I8
sS'&'
I17
sS'$'
I13
sS'"'
I8
sS' '
I6
ssS'symbol-18.pil'
p20
(dp21
S'\177'
I0
sS'}'
I9
sS'{'
I9
sS'y'
I13
sS'w'
I12
sS'u'
I11
sS's'
I11
sS'q'
I10
sS'o'
I10
sS'm'
I11
sS'k'
I10
sS'i'
I6
sS'g'
I8
sS'e'
I8
sS'c'
I10
sS'a'
I12
sS'_'
I9
sS']'
I6
sS'['
I6
sS'Y'
I15
sS'W'
I14
sS'U'
I13
sS'S'
I11
sS'Q'
I13
sS'O'
I13
sS'M'
I16
sS'K'
I14
sS'I'
I6
sS'G'
I11
sS'E'
I11
sS'C'
I14
sS'A'
I14
sS'?'
I8
sS'='
I10
sS';'
I5
sS'9'
I9
sS'7'
I9
sS'5'
I9
sS'3'
I9
sS'1'
I9
sS'/'
I5
sS'-'
I9
sS'+'
I10
sS')'
I6
sS"'"
I8
sS'%'
I15
sS'#'
I9
sS'!'
I6
sS'~'
I10
sS'|'
I4
sS'z'
I9
sS'x'
I9
sS'v'
I12
sS't'
I8
sS'r'
I10
sS'p'
I10
sS'n'
I10
sS'l'
I10
sS'j'
I11
sS'h'
I11
sS'f'
I11
sS'd'
I9
sS'b'
I10
sS'`'
I9
sS'^'
I12
sS'\\'
I14
sS'Z'
I11
sS'X'
I12
sS'V'
I8
sS'T'
I12
sS'R'
I10
sS'P'
I13
sS'N'
I13
sS'L'
I13
sS'J'
I12
sS'H'
I13
sS'F'
I14
sS'D'
I11
sS'B'
I11
sS'@'
I10
sS'>'
I10
sS'<'
I10
sS':'
I5
sS'8'
I9
sS'6'
I9
sS'4'
I9
sS'2'
I9
sS'0'
I9
sS'.'
I4
sS','
I5
sS'*'
I9
sS'('
I6
sS'&'
I13
sS'$'
I10
sS'"'
I13
sS' '
I5
ssS'times-24.pil'
p22
(dp23
S'\177'
I0
sS'}'
I10
sS'{'
I10
sS'y'
I11
sS'w'
I17
sS'u'
I13
sS's'
I10
sS'q'
I12
sS'o'
I12
sS'm'
I20
sS'k'
I12
sS'i'
I6
sS'g'
I12
sS'e'
I11
sS'c'
I11
sS'a'
I11
sS'_'
I13
sS']'
I8
sS'['
I8
sS'Y'
I16
sS'W'
I23
sS'U'
I18
sS'S'
I13
sS'Q'
I18
sS'O'
I18
sS'M'
I22
sS'K'
I17
sS'I'
I8
sS'G'
I18
sS'E'
I15
sS'C'
I16
sS'A'
I17
sS'?'
I11
sS'='
I14
sS';'
I7
sS'9'
I12
sS'7'
I12
sS'5'
I12
sS'3'
I12
sS'1'
I12
sS'/'
I7
sS'-'
I14
sS'+'
I14
sS')'
I8
sS"'"
I8
sS'%'
I19
sS'#'
I13
sS'!'
I8
sS'~'
I13
sS'|'
I6
sS'z'
I10
sS'x'
I13
sS'v'
I11
sS't'
I7
sS'r'
I8
sS'p'
I12
sS'n'
I13
sS'l'
I6
sS'j'
I6
sS'h'
I13
sS'f'
I7
sS'd'
I12
sS'b'
I12
sS'`'
I7
sS'^'
I11
sS'\\'
I7
sS'Z'
I15
sS'X'
I18
sS'V'
I17
sS'T'
I16
sS'R'
I16
sS'P'
I15
sS'N'
I18
sS'L'
I14
sS'J'
I11
sS'H'
I19
sS'F'
I14
sS'D'
I17
sS'B'
I16
sS'@'
I22
sS'>'
I13
sS'<'
I13
sS':'
I6
sS'8'
I12
sS'6'
I12
sS'4'
I12
sS'2'
I12
sS'0'
I12
sS'.'
I6
sS','
I7
sS'*'
I12
sS'('
I8
sS'&'
I18
sS'$'
I12
sS'"'
I10
sS' '
I6
ssS'times-bold-12.pil'
p24
(dp25
S'\177'
I0
sS'}'
I5
sS'{'
I5
sS'y'
I6
sS'w'
I9
sS'u'
I6
sS's'
I6
sS'q'
I6
sS'o'
I7
sS'm'
I9
sS'k'
I7
sS'i'
I3
sS'g'
I6
sS'e'
I7
sS'c'
I6
sS'a'
I7
sS'_'
I6
sS']'
I4
sS'['
I4
sS'Y'
I9
sS'W'
I12
sS'U'
I9
sS'S'
I7
sS'Q'
I9
sS'O'
I9
sS'M'
I11
sS'K'
I10
sS'I'
I5
sS'G'
I9
sS'E'
I8
sS'C'
I8
sS'A'
I9
sS'?'
I7
sS'='
I7
sS';'
I4
sS'9'
I6
sS'7'
I6
sS'5'
I6
sS'3'
I6
sS'1'
I6
sS'/'
I4
sS'-'
I7
sS'+'
I7
sS')'
I4
sS"'"
I4
sS'%'
I12
sS'#'
I6
sS'!'
I4
sS'~'
I7
sS'|'
I3
sS'z'
I6
sS'x'
I6
sS'v'
I6
sS't'
I4
sS'r'
I5
sS'p'
I6
sS'n'
I6
sS'l'
I3
sS'j'
I3
sS'h'
I6
sS'f'
I4
sS'd'
I6
sS'b'
I6
sS'`'
I4
sS'^'
I7
sS'\\'
I3
sS'Z'
I8
sS'X'
I9
sS'V'
I9
sS'T'
I9
sS'R'
I9
sS'P'
I8
sS'N'
I9
sS'L'
I8
sS'J'
I7
sS'H'
I10
sS'F'
I8
sS'D'
I9
sS'B'
I9
sS'@'
I12
sS'>'
I8
sS'<'
I7
sS':'
I4
sS'8'
I6
sS'6'
I6
sS'4'
I6
sS'2'
I6
sS'0'
I6
sS'.'
I4
sS','
I4
sS'*'
I6
sS'('
I4
sS'&'
I10
sS'$'
I6
sS'"'
I5
sS' '
I3
ssS'times-bold-8.pil'
p26
(dp27
S'\177'
I0
sS'}'
I3
sS'{'
I3
sS'y'
I4
sS'w'
I5
sS'u'
I4
sS's'
I3
sS'q'
I4
sS'o'
I5
sS'm'
I6
sS'k'
I4
sS'i'
I2
sS'g'
I4
sS'e'
I4
sS'c'
I4
sS'a'
I4
sS'_'
I4
sS']'
I3
sS'['
I3
sS'Y'
I6
sS'W'
I8
sS'U'
I6
sS'S'
I5
sS'Q'
I6
sS'O'
I6
sS'M'
I8
sS'K'
I6
sS'I'
I4
sS'G'
I6
sS'E'
I6
sS'C'
I6
sS'A'
I6
sS'?'
I5
sS'='
I5
sS';'
I3
sS'9'
I4
sS'7'
I4
sS'5'
I4
sS'3'
I4
sS'1'
I4
sS'/'
I2
sS'-'
I5
sS'+'
I5
sS')'
I3
sS"'"
I3
sS'%'
I7
sS'#'
I5
sS'!'
I3
sS'~'
I5
sS'|'
I2
sS'z'
I4
sS'x'
I4
sS'v'
I4
sS't'
I3
sS'r'
I3
sS'p'
I4
sS'n'
I5
sS'l'
I2
sS'j'
I3
sS'h'
I4
sS'f'
I2
sS'd'
I5
sS'b'
I4
sS'`'
I3
sS'^'
I5
sS'\\'
I2
sS'Z'
I6
sS'X'
I6
sS'V'
I6
sS'T'
I6
sS'R'
I6
sS'P'
I5
sS'N'
I6
sS'L'
I6
sS'J'
I4
sS'H'
I7
sS'F'
I6
sS'D'
I6
sS'B'
I6
sS'@'
I9
sS'>'
I5
sS'<'
I5
sS':'
I3
sS'8'
I4
sS'6'
I4
sS'4'
I4
sS'2'
I4
sS'0'
I4
sS'.'
I2
sS','
I3
sS'*'
I5
sS'('
I2
sS'&'
I7
sS'$'
I4
sS'"'
I4
sS' '
I2
ssS'courier-bold-12.pil'
p28
(dp29
S'\177'
I0
sS'}'
I7
sS'{'
I7
sS'y'
I7
sS'w'
I7
sS'u'
I7
sS's'
I7
sS'q'
I7
sS'o'
I7
sS'm'
I7
sS'k'
I7
sS'i'
I7
sS'g'
I7
sS'e'
I7
sS'c'
I7
sS'a'
I7
sS'_'
I7
sS']'
I7
sS'['
I7
sS'Y'
I7
sS'W'
I7
sS'U'
I7
sS'S'
I7
sS'Q'
I7
sS'O'
I7
sS'M'
I7
sS'K'
I7
sS'I'
I7
sS'G'
I7
sS'E'
I7
sS'C'
I7
sS'A'
I7
sS'?'
I7
sS'='
I7
sS';'
I7
sS'9'
I7
sS'7'
I7
sS'5'
I7
sS'3'
I7
sS'1'
I7
sS'/'
I7
sS'-'
I7
sS'+'
I7
sS')'
I7
sS"'"
I7
sS'%'
I7
sS'#'
I7
sS'!'
I7
sS'~'
I7
sS'|'
I7
sS'z'
I7
sS'x'
I7
sS'v'
I7
sS't'
I7
sS'r'
I7
sS'p'
I7
sS'n'
I7
sS'l'
I7
sS'j'
I7
sS'h'
I7
sS'f'
I7
sS'd'
I7
sS'b'
I7
sS'`'
I7
sS'^'
I7
sS'\\'
I7
sS'Z'
I7
sS'X'
I7
sS'V'
I7
sS'T'
I7
sS'R'
I7
sS'P'
I7
sS'N'
I7
sS'L'
I7
sS'J'
I7
sS'H'
I7
sS'F'
I7
sS'D'
I7
sS'B'
I7
sS'@'
I7
sS'>'
I7
sS'<'
I7
sS':'
I7
sS'8'
I7
sS'6'
I7
sS'4'
I7
sS'2'
I7
sS'0'
I7
sS'.'
I7
sS','
I7
sS'*'
I7
sS'('
I7
sS'&'
I7
sS'$'
I7
sS'"'
I7
sS' '
I7
ssS'times-14.pil'
p30
(dp31
S'\177'
I0
sS'}'
I7
sS'{'
I7
sS'y'
I7
sS'w'
I11
sS'u'
I7
sS's'
I6
sS'q'
I7
sS'o'
I7
sS'm'
I11
sS'k'
I7
sS'i'
I3
sS'g'
I7
sS'e'
I7
sS'c'
I7
sS'a'
I7
sS'_'
I7
sS']'
I5
sS'['
I5
sS'Y'
I9
sS'W'
I13
sS'U'
I10
sS'S'
I8
sS'Q'
I10
sS'O'
I10
sS'M'
I13
sS'K'
I10
sS'I'
I5
sS'G'
I11
sS'E'
I9
sS'C'
I10
sS'A'
I11
sS'?'
I6
sS'='
I8
sS';'
I4
sS'9'
I7
sS'7'
I7
sS'5'
I7
sS'3'
I7
sS'1'
I7
sS'/'
I4
sS'-'
I9
sS'+'
I8
sS')'
I5
sS"'"
I4
sS'%'
I12
sS'#'
I7
sS'!'
I5
sS'~'
I8
sS'|'
I3
sS'z'
I6
sS'x'
I7
sS'v'
I7
sS't'
I4
sS'r'
I5
sS'p'
I7
sS'n'
I7
sS'l'
I3
sS'j'
I4
sS'h'
I7
sS'f'
I4
sS'd'
I7
sS'b'
I7
sS'`'
I4
sS'^'
I7
sS'\\'
I4
sS'Z'
I8
sS'X'
I10
sS'V'
I9
sS'T'
I9
sS'R'
I9
sS'P'
I8
sS'N'
I11
sS'L'
I9
sS'J'
I6
sS'H'
I10
sS'F'
I8
sS'D'
I10
sS'B'
I9
sS'@'
I13
sS'>'
I8
sS'<'
I8
sS':'
I4
sS'8'
I7
sS'6'
I7
sS'4'
I7
sS'2'
I7
sS'0'
I7
sS'.'
I3
sS','
I3
sS'*'
I7
sS'('
I5
sS'&'
I11
sS'$'
I7
sS'"'
I6
sS' '
I3
ssS'helvetica-14.pil'
p32
(dp33
S'\177'
I0
sS'}'
I5
sS'{'
I5
sS'y'
I7
sS'w'
I10
sS'u'
I8
sS's'
I8
sS'q'
I8
sS'o'
I8
sS'm'
I11
sS'k'
I7
sS'i'
I3
sS'g'
I8
sS'e'
I8
sS'c'
I8
sS'a'
I8
sS'_'
I8
sS']'
I4
sS'['
I4
sS'Y'
I9
sS'W'
I15
sS'U'
I10
sS'S'
I9
sS'Q'
I11
sS'O'
I11
sS'M'
I13
sS'K'
I10
sS'I'
I5
sS'G'
I11
sS'E'
I9
sS'C'
I10
sS'A'
I11
sS'?'
I8
sS'='
I9
sS';'
I4
sS'9'
I8
sS'7'
I8
sS'5'
I8
sS'3'
I8
sS'1'
I8
sS'/'
I4
sS'-'
I9
sS'+'
I9
sS')'
I5
sS"'"
I3
sS'%'
I12
sS'#'
I8
sS'!'
I4
sS'~'
I8
sS'|'
I3
sS'z'
I7
sS'x'
I7
sS'v'
I8
sS't'
I4
sS'r'
I5
sS'p'
I8
sS'n'
I8
sS'l'
I3
sS'j'
I3
sS'h'
I8
sS'f'
I3
sS'd'
I8
sS'b'
I8
sS'`'
I3
sS'^'
I7
sS'\\'
I4
sS'Z'
I9
sS'X'
I10
sS'V'
I11
sS'T'
I9
sS'R'
I9
sS'P'
I9
sS'N'
I10
sS'L'
I8
sS'J'
I8
sS'H'
I10
sS'F'
I9
sS'D'
I10
sS'B'
I9
sS'@'
I13
sS'>'
I8
sS'<'
I8
sS':'
I3
sS'8'
I8
sS'6'
I8
sS'4'
I8
sS'2'
I8
sS'0'
I8
sS'.'
I3
sS','
I3
sS'*'
I7
sS'('
I5
sS'&'
I10
sS'$'
I8
sS'"'
I5
sS' '
I4
ssS'symbol-24.pil'
p34
(dp35
S'\177'
I0
sS'}'
I10
sS'{'
I10
sS'y'
I18
sS'w'
I16
sS'u'
I14
sS's'
I15
sS'q'
I12
sS'o'
I13
sS'm'
I14
sS'k'
I14
sS'i'
I8
sS'g'
I11
sS'e'
I11
sS'c'
I14
sS'a'
I16
sS'_'
I13
sS']'
I8
sS'['
I8
sS'Y'
I20
sS'W'
I18
sS'U'
I16
sS'S'
I14
sS'Q'
I18
sS'O'
I18
sS'M'
I22
sS'K'
I17
sS'I'
I8
sS'G'
I15
sS'E'
I15
sS'C'
I18
sS'A'
I18
sS'?'
I11
sS'='
I12
sS';'
I6
sS'9'
I12
sS'7'
I12
sS'5'
I12
sS'3'
I12
sS'1'
I12
sS'/'
I7
sS'-'
I13
sS'+'
I12
sS')'
I8
sS"'"
I11
sS'%'
I20
sS'#'
I13
sS'!'
I7
sS'~'
I13
sS'|'
I4
sS'z'
I12
sS'x'
I12
sS'v'
I18
sS't'
I11
sS'r'
I12
sS'p'
I14
sS'n'
I13
sS'l'
I14
sS'j'
I14
sS'h'
I15
sS'f'
I14
sS'd'
I12
sS'b'
I12
sS'`'
I13
sS'^'
I16
sS'\\'
I18
sS'Z'
I15
sS'X'
I16
sS'V'
I11
sS'T'
I16
sS'R'
I14
sS'P'
I18
sS'N'
I18
sS'L'
I17
sS'J'
I16
sS'H'
I18
sS'F'
I19
sS'D'
I15
sS'B'
I15
sS'@'
I13
sS'>'
I13
sS'<'
I13
sS':'
I6
sS'8'
I12
sS'6'
I12
sS'4'
I12
sS'2'
I12
sS'0'
I12
sS'.'
I6
sS','
I6
sS'*'
I12
sS'('
I8
sS'&'
I17
sS'$'
I13
sS'"'
I17
sS' '
I6
ssS'helvetica-bold-8.pil'
p36
(dp37
S'\177'
I0
sS'}'
I4
sS'{'
I4
sS'y'
I5
sS'w'
I6
sS'u'
I5
sS's'
I5
sS'q'
I5
sS'o'
I5
sS'm'
I7
sS'k'
I5
sS'i'
I2
sS'g'
I5
sS'e'
I5
sS'c'
I4
sS'a'
I5
sS'_'
I5
sS']'
I3
sS'['
I3
sS'Y'
I7
sS'W'
I9
sS'U'
I6
sS'S'
I6
sS'Q'
I6
sS'O'
I6
sS'M'
I8
sS'K'
I6
sS'I'
I2
sS'G'
I6
sS'E'
I5
sS'C'
I6
sS'A'
I6
sS'?'
I5
sS'='
I5
sS';'
I2
sS'9'
I5
sS'7'
I5
sS'5'
I5
sS'3'
I5
sS'1'
I5
sS'/'
I3
sS'-'
I6
sS'+'
I5
sS')'
I3
sS"'"
I2
sS'%'
I6
sS'#'
I5
sS'!'
I3
sS'~'
I5
sS'|'
I2
sS'z'
I5
sS'x'
I6
sS'v'
I5
sS't'
I3
sS'r'
I3
sS'p'
I5
sS'n'
I5
sS'l'
I2
sS'j'
I2
sS'h'
I5
sS'f'
I3
sS'd'
I5
sS'b'
I5
sS'`'
I2
sS'^'
I4
sS'\\'
I3
sS'Z'
I6
sS'X'
I6
sS'V'
I6
sS'T'
I6
sS'R'
I6
sS'P'
I6
sS'N'
I6
sS'L'
I5
sS'J'
I5
sS'H'
I6
sS'F'
I5
sS'D'
I6
sS'B'
I6
sS'@'
I9
sS'>'
I4
sS'<'
I4
sS':'
I2
sS'8'
I5
sS'6'
I5
sS'4'
I5
sS'2'
I5
sS'0'
I5
sS'.'
I2
sS','
I2
sS'*'
I3
sS'('
I3
sS'&'
I6
sS'$'
I5
sS'"'
I4
sS' '
I2
ssS'times-bold-24.pil'
p38
(dp39
S'\177'
I0
sS'}'
I10
sS'{'
I10
sS'y'
I12
sS'w'
I18
sS'u'
I14
sS's'
I10
sS'q'
I14
sS'o'
I13
sS'm'
I21
sS'k'
I15
sS'i'
I7
sS'g'
I12
sS'e'
I11
sS'c'
I11
sS'a'
I12
sS'_'
I13
sS']'
I8
sS'['
I8
sS'Y'
I18
sS'W'
I25
sS'U'
I18
sS'S'
I14
sS'Q'
I19
sS'O'
I19
sS'M'
I24
sS'K'
I19
sS'I'
I10
sS'G'
I19
sS'E'
I17
sS'C'
I18
sS'A'
I18
sS'?'
I12
sS'='
I14
sS';'
I8
sS'9'
I12
sS'7'
I12
sS'5'
I12
sS'3'
I12
sS'1'
I12
sS'/'
I7
sS'-'
I15
sS'+'
I14
sS')'
I8
sS"'"
I8
sS'%'
I19
sS'#'
I13
sS'!'
I8
sS'~'
I13
sS'|'
I6
sS'z'
I11
sS'x'
I12
sS'v'
I12
sS't'
I8
sS'r'
I11
sS'p'
I14
sS'n'
I14
sS'l'
I7
sS'j'
I8
sS'h'
I14
sS'f'
I8
sS'd'
I14
sS'b'
I13
sS'`'
I8
sS'^'
I15
sS'\\'
I7
sS'Z'
I17
sS'X'
I18
sS'V'
I18
sS'T'
I16
sS'R'
I18
sS'P'
I15
sS'N'
I18
sS'L'
I16
sS'J'
I12
sS'H'
I19
sS'F'
I15
sS'D'
I18
sS'B'
I16
sS'@'
I23
sS'>'
I14
sS'<'
I14
sS':'
I8
sS'8'
I12
sS'6'
I12
sS'4'
I12
sS'2'
I12
sS'0'
I12
sS'.'
I6
sS','
I6
sS'*'
I13
sS'('
I8
sS'&'
I21
sS'$'
I12
sS'"'
I12
sS' '
I6
ssS'courier-bold-10.pil'
p40
(dp41
S'\177'
I0
sS'}'
I6
sS'{'
I6
sS'y'
I6
sS'w'
I6
sS'u'
I6
sS's'
I6
sS'q'
I6
sS'o'
I6
sS'm'
I6
sS'k'
I6
sS'i'
I6
sS'g'
I6
sS'e'
I6
sS'c'
I6
sS'a'
I6
sS'_'
I6
sS']'
I6
sS'['
I6
sS'Y'
I6
sS'W'
I6
sS'U'
I6
sS'S'
I6
sS'Q'
I6
sS'O'
I6
sS'M'
I6
sS'K'
I6
sS'I'
I6
sS'G'
I6
sS'E'
I6
sS'C'
I6
sS'A'
I6
sS'?'
I6
sS'='
I6
sS';'
I6
sS'9'
I6
sS'7'
I6
sS'5'
I6
sS'3'
I6
sS'1'
I6
sS'/'
I6
sS'-'
I6
sS'+'
I6
sS')'
I6
sS"'"
I6
sS'%'
I6
sS'#'
I6
sS'!'
I6
sS'~'
I6
sS'|'
I6
sS'z'
I6
sS'x'
I6
sS'v'
I6
sS't'
I6
sS'r'
I6
sS'p'
I6
sS'n'
I6
sS'l'
I6
sS'j'
I6
sS'h'
I6
sS'f'
I6
sS'd'
I6
sS'b'
I6
sS'`'
I6
sS'^'
I6
sS'\\'
I6
sS'Z'
I6
sS'X'
I6
sS'V'
I6
sS'T'
I6
sS'R'
I6
sS'P'
I6
sS'N'
I6
sS'L'
I6
sS'J'
I6
sS'H'
I6
sS'F'
I6
sS'D'
I6
sS'B'
I6
sS'@'
I6
sS'>'
I6
sS'<'
I6
sS':'
I6
sS'8'
I6
sS'6'
I6
sS'4'
I6
sS'2'
I6
sS'0'
I6
sS'.'
I6
sS','
I6
sS'*'
I6
sS'('
I6
sS'&'
I6
sS'$'
I6
sS'"'
I6
sS' '
I6
ssS'helvetica-10.pil'
p42
(dp43
S'\177'
I0
sS'}'
I3
sS'{'
I3
sS'y'
I5
sS'w'
I8
sS'u'
I5
sS's'
I5
sS'q'
I6
sS'o'
I6
sS'm'
I8
sS'k'
I5
sS'i'
I2
sS'g'
I6
sS'e'
I5
sS'c'
I5
sS'a'
I5
sS'_'
I6
sS']'
I3
sS'['
I3
sS'Y'
I7
sS'W'
I9
sS'U'
I8
sS'S'
I7
sS'Q'
I8
sS'O'
I8
sS'M'
I9
sS'K'
I7
sS'I'
I3
sS'G'
I8
sS'E'
I7
sS'C'
I8
sS'A'
I7
sS'?'
I6
sS'='
I5
sS';'
I3
sS'9'
I6
sS'7'
I6
sS'5'
I6
sS'3'
I6
sS'1'
I6
sS'/'
I3
sS'-'
I7
sS'+'
I6
sS')'
I4
sS"'"
I3
sS'%'
I9
sS'#'
I6
sS'!'
I3
sS'~'
I7
sS'|'
I3
sS'z'
I5
sS'x'
I6
sS'v'
I6
sS't'
I4
sS'r'
I4
sS'p'
I6
sS'n'
I6
sS'l'
I2
sS'j'
I2
sS'h'
I6
sS'f'
I4
sS'd'
I6
sS'b'
I6
sS'`'
I3
sS'^'
I6
sS'\\'
I3
sS'Z'
I7
sS'X'
I7
sS'V'
I7
sS'T'
I5
sS'R'
I7
sS'P'
I7
sS'N'
I8
sS'L'
I6
sS'J'
I5
sS'H'
I8
sS'F'
I6
sS'D'
I8
sS'B'
I7
sS'@'
I11
sS'>'
I6
sS'<'
I6
sS':'
I3
sS'8'
I6
sS'6'
I6
sS'4'
I6
sS'2'
I6
sS'0'
I6
sS'.'
I3
sS','
I3
sS'*'
I4
sS'('
I4
sS'&'
I8
sS'$'
I6
sS'"'
I4
sS' '
I3
ssS'times-bold-10.pil'
p44
(dp45
S'\177'
I0
sS'}'
I4
sS'{'
I4
sS'y'
I5
sS'w'
I6
sS'u'
I5
sS's'
I4
sS'q'
I5
sS'o'
I6
sS'm'
I8
sS'k'
I5
sS'i'
I3
sS'g'
I5
sS'e'
I5
sS'c'
I5
sS'a'
I5
sS'_'
I5
sS']'
I4
sS'['
I4
sS'Y'
I8
sS'W'
I10
sS'U'
I7
sS'S'
I6
sS'Q'
I7
sS'O'
I7
sS'M'
I10
sS'K'
I8
sS'I'
I5
sS'G'
I7
sS'E'
I7
sS'C'
I7
sS'A'
I7
sS'?'
I6
sS'='
I6
sS';'
I4
sS'9'
I5
sS'7'
I5
sS'5'
I5
sS'3'
I5
sS'1'
I5
sS'/'
I3
sS'-'
I7
sS'+'
I6
sS')'
I4
sS"'"
I4
sS'%'
I9
sS'#'
I6
sS'!'
I4
sS'~'
I6
sS'|'
I3
sS'z'
I5
sS'x'
I5
sS'v'
I5
sS't'
I4
sS'r'
I4
sS'p'
I5
sS'n'
I6
sS'l'
I3
sS'j'
I4
sS'h'
I5
sS'f'
I3
sS'd'
I6
sS'b'
I5
sS'`'
I4
sS'^'
I6
sS'\\'
I3
sS'Z'
I7
sS'X'
I7
sS'V'
I8
sS'T'
I7
sS'R'
I7
sS'P'
I6
sS'N'
I8
sS'L'
I7
sS'J'
I5
sS'H'
I9
sS'F'
I7
sS'D'
I8
sS'B'
I7
sS'@'
I11
sS'>'
I6
sS'<'
I6
sS':'
I4
sS'8'
I5
sS'6'
I5
sS'4'
I5
sS'2'
I5
sS'0'
I5
sS'.'
I3
sS','
I4
sS'*'
I6
sS'('
I4
sS'&'
I9
sS'$'
I5
sS'"'
I5
sS' '
I2
ssS'times-8.pil'
p46
(dp47
S'\177'
I0
sS'}'
I3
sS'{'
I3
sS'y'
I4
sS'w'
I6
sS'u'
I4
sS's'
I3
sS'q'
I4
sS'o'
I4
sS'm'
I6
sS'k'
I4
sS'i'
I2
sS'g'
I4
sS'e'
I4
sS'c'
I4
sS'a'
I3
sS'_'
I4
sS']'
I2
sS'['
I2
sS'Y'
I6
sS'W'
I8
sS'U'
I6
sS'S'
I5
sS'Q'
I6
sS'O'
I6
sS'M'
I8
sS'K'
I6
sS'I'
I3
sS'G'
I6
sS'E'
I5
sS'C'
I6
sS'A'
I6
sS'?'
I3
sS'='
I5
sS';'
I2
sS'9'
I4
sS'7'
I4
sS'5'
I4
sS'3'
I4
sS'1'
I4
sS'/'
I2
sS'-'
I6
sS'+'
I5
sS')'
I3
sS"'"
I2
sS'%'
I6
sS'#'
I4
sS'!'
I2
sS'~'
I6
sS'|'
I2
sS'z'
I4
sS'x'
I5
sS'v'
I4
sS't'
I3
sS'r'
I3
sS'p'
I4
sS'n'
I4
sS'l'
I3
sS'j'
I2
sS'h'
I4
sS'f'
I3
sS'd'
I4
sS'b'
I4
sS'`'
I2
sS'^'
I4
sS'\\'
I2
sS'Z'
I5
sS'X'
I6
sS'V'
I6
sS'T'
I5
sS'R'
I6
sS'P'
I5
sS'N'
I6
sS'L'
I5
sS'J'
I3
sS'H'
I6
sS'F'
I5
sS'D'
I6
sS'B'
I5
sS'@'
I7
sS'>'
I4
sS'<'
I4
sS':'
I2
sS'8'
I4
sS'6'
I4
sS'4'
I4
sS'2'
I4
sS'0'
I4
sS'.'
I2
sS','
I2
sS'*'
I4
sS'('
I3
sS'&'
I6
sS'$'
I4
sS'"'
I3
sS' '
I2
ssS'helvetica-bold-24.pil'
p48
(dp49
S'\177'
I0
sS'}'
I10
sS'{'
I10
sS'y'
I15
sS'w'
I19
sS'u'
I15
sS's'
I13
sS'q'
I15
sS'o'
I14
sS'm'
I21
sS'k'
I14
sS'i'
I7
sS'g'
I15
sS'e'
I14
sS'c'
I13
sS'a'
I14
sS'_'
I14
sS']'
I8
sS'['
I8
sS'Y'
I17
sS'W'
I23
sS'U'
I19
sS'S'
I17
sS'Q'
I19
sS'O'
I19
sS'M'
I23
sS'K'
I18
sS'I'
I7
sS'G'
I19
sS'E'
I16
sS'C'
I18
sS'A'
I18
sS'?'
I15
sS'='
I14
sS';'
I7
sS'9'
I13
sS'7'
I13
sS'5'
I13
sS'3'
I13
sS'1'
I13
sS'/'
I8
sS'-'
I15
sS'+'
I15
sS')'
I8
sS"'"
I7
sS'%'
I22
sS'#'
I14
sS'!'
I7
sS'~'
I14
sS'|'
I7
sS'z'
I13
sS'x'
I13
sS'v'
I14
sS't'
I9
sS'r'
I10
sS'p'
I15
sS'n'
I15
sS'l'
I7
sS'j'
I7
sS'h'
I15
sS'f'
I9
sS'd'
I15
sS'b'
I15
sS'`'
I7
sS'^'
I14
sS'\\'
I8
sS'Z'
I16
sS'X'
I18
sS'V'
I18
sS'T'
I15
sS'R'
I17
sS'P'
I17
sS'N'
I19
sS'L'
I15
sS'J'
I14
sS'H'
I19
sS'F'
I15
sS'D'
I19
sS'B'
I18
sS'@'
I24
sS'>'
I14
sS'<'
I15
sS':'
I7
sS'8'
I13
sS'6'
I13
sS'4'
I13
sS'2'
I13
sS'0'
I13
sS'.'
I7
sS','
I7
sS'*'
I10
sS'('
I8
sS'&'
I18
sS'$'
I13
sS'"'
I9
sS' '
I6
ssS'courier-bold-18.pil'
p50
(dp51
S'\177'
I0
sS'}'
I11
sS'{'
I11
sS'y'
I11
sS'w'
I11
sS'u'
I11
sS's'
I11
sS'q'
I11
sS'o'
I11
sS'm'
I11
sS'k'
I11
sS'i'
I11
sS'g'
I11
sS'e'
I11
sS'c'
I11
sS'a'
I11
sS'_'
I11
sS']'
I11
sS'['
I11
sS'Y'
I11
sS'W'
I11
sS'U'
I11
sS'S'
I11
sS'Q'
I11
sS'O'
I11
sS'M'
I11
sS'K'
I11
sS'I'
I11
sS'G'
I11
sS'E'
I11
sS'C'
I11
sS'A'
I11
sS'?'
I11
sS'='
I11
sS';'
I11
sS'9'
I11
sS'7'
I11
sS'5'
I11
sS'3'
I11
sS'1'
I11
sS'/'
I11
sS'-'
I11
sS'+'
I11
sS')'
I11
sS"'"
I11
sS'%'
I11
sS'#'
I11
sS'!'
I11
sS'~'
I11
sS'|'
I11
sS'z'
I11
sS'x'
I11
sS'v'
I11
sS't'
I11
sS'r'
I11
sS'p'
I11
sS'n'
I11
sS'l'
I11
sS'j'
I11
sS'h'
I11
sS'f'
I11
sS'd'
I11
sS'b'
I11
sS'`'
I11
sS'^'
I11
sS'\\'
I11
sS'Z'
I11
sS'X'
I11
sS'V'
I11
sS'T'
I11
sS'R'
I11
sS'P'
I11
sS'N'
I11
sS'L'
I11
sS'J'
I11
sS'H'
I11
sS'F'
I11
sS'D'
I11
sS'B'
I11
sS'@'
I11
sS'>'
I11
sS'<'
I11
sS':'
I11
sS'8'
I11
sS'6'
I11
sS'4'
I11
sS'2'
I11
sS'0'
I11
sS'.'
I11
sS','
I11
sS'*'
I11
sS'('
I11
sS'&'
I11
sS'$'
I11
sS'"'
I11
sS' '
I11
ssS'helvetica-18.pil'
p52
(dp53
S'\177'
I0
sS'}'
I6
sS'{'
I6
sS'y'
I10
sS'w'
I14
sS'u'
I10
sS's'
I9
sS'q'
I11
sS'o'
I11
sS'm'
I14
sS'k'
I9
sS'i'
I4
sS'g'
I11
sS'e'
I10
sS'c'
I10
sS'a'
I9
sS'_'
I10
sS']'
I5
sS'['
I5
sS'Y'
I14
sS'W'
I18
sS'U'
I13
sS'S'
I13
sS'Q'
I15
sS'O'
I15
sS'M'
I16
sS'K'
I13
sS'I'
I6
sS'G'
I14
sS'E'
I11
sS'C'
I14
sS'A'
I12
sS'?'
I10
sS'='
I11
sS';'
I5
sS'9'
I10
sS'7'
I10
sS'5'
I10
sS'3'
I10
sS'1'
I10
sS'/'
I5
sS'-'
I11
sS'+'
I10
sS')'
I6
sS"'"
I4
sS'%'
I16
sS'#'
I10
sS'!'
I6
sS'~'
I10
sS'|'
I4
sS'z'
I9
sS'x'
I10
sS'v'
I10
sS't'
I6
sS'r'
I6
sS'p'
I11
sS'n'
I10
sS'l'
I4
sS'j'
I4
sS'h'
I10
sS'f'
I6
sS'd'
I11
sS'b'
I11
sS'`'
I4
sS'^'
I9
sS'\\'
I5
sS'Z'
I12
sS'X'
I13
sS'V'
I14
sS'T'
I12
sS'R'
I12
sS'P'
I12
sS'N'
I13
sS'L'
I10
sS'J'
I10
sS'H'
I13
sS'F'
I11
sS'D'
I13
sS'B'
I13
sS'@'
I18
sS'>'
I10
sS'<'
I10
sS':'
I5
sS'8'
I10
sS'6'
I10
sS'4'
I10
sS'2'
I10
sS'0'
I10
sS'.'
I5
sS','
I5
sS'*'
I7
sS'('
I6
sS'&'
I13
sS'$'
I10
sS'"'
I5
sS' '
I5
ssS'courier-14.pil'
p54
(dp55
S'\177'
I0
sS'}'
I9
sS'{'
I9
sS'y'
I9
sS'w'
I9
sS'u'
I9
sS's'
I9
sS'q'
I9
sS'o'
I9
sS'm'
I9
sS'k'
I9
sS'i'
I9
sS'g'
I9
sS'e'
I9
sS'c'
I9
sS'a'
I9
sS'_'
I9
sS']'
I9
sS'['
I9
sS'Y'
I9
sS'W'
I9
sS'U'
I9
sS'S'
I9
sS'Q'
I9
sS'O'
I9
sS'M'
I9
sS'K'
I9
sS'I'
I9
sS'G'
I9
sS'E'
I9
sS'C'
I9
sS'A'
I9
sS'?'
I9
sS'='
I9
sS';'
I9
sS'9'
I9
sS'7'
I9
sS'5'
I9
sS'3'
I9
sS'1'
I9
sS'/'
I9
sS'-'
I9
sS'+'
I9
sS')'
I9
sS"'"
I9
sS'%'
I9
sS'#'
I9
sS'!'
I9
sS'~'
I9
sS'|'
I9
sS'z'
I9
sS'x'
I9
sS'v'
I9
sS't'
I9
sS'r'
I9
sS'p'
I9
sS'n'
I9
sS'l'
I9
sS'j'
I9
sS'h'
I9
sS'f'
I9
sS'd'
I9
sS'b'
I9
sS'`'
I9
sS'^'
I9
sS'\\'
I9
sS'Z'
I9
sS'X'
I9
sS'V'
I9
sS'T'
I9
sS'R'
I9
sS'P'
I9
sS'N'
I9
sS'L'
I9
sS'J'
I9
sS'H'
I9
sS'F'
I9
sS'D'
I9
sS'B'
I9
sS'@'
I9
sS'>'
I9
sS'<'
I9
sS':'
I9
sS'8'
I9
sS'6'
I9
sS'4'
I9
sS'2'
I9
sS'0'
I9
sS'.'
I9
sS','
I9
sS'*'
I9
sS'('
I9
sS'&'
I9
sS'$'
I9
sS'"'
I9
sS' '
I9
ssS'helvetica-12.pil'
p56
(dp57
S'\177'
I0
sS'}'
I4
sS'{'
I4
sS'y'
I7
sS'w'
I9
sS'u'
I7
sS's'
I6
sS'q'
I7
sS'o'
I7
sS'm'
I9
sS'k'
I6
sS'i'
I3
sS'g'
I7
sS'e'
I7
sS'c'
I7
sS'a'
I7
sS'_'
I7
sS']'
I3
sS'['
I3
sS'Y'
I9
sS'W'
I11
sS'U'
I8
sS'S'
I8
sS'Q'
I10
sS'O'
I10
sS'M'
I11
sS'K'
I8
sS'I'
I3
sS'G'
I9
sS'E'
I8
sS'C'
I9
sS'A'
I9
sS'?'
I7
sS'='
I7
sS';'
I3
sS'9'
I7
sS'7'
I7
sS'5'
I7
sS'3'
I7
sS'1'
I7
sS'/'
I4
sS'-'
I8
sS'+'
I7
sS')'
I4
sS"'"
I3
sS'%'
I11
sS'#'
I7
sS'!'
I3
sS'~'
I7
sS'|'
I3
sS'z'
I6
sS'x'
I6
sS'v'
I7
sS't'
I3
sS'r'
I4
sS'p'
I7
sS'n'
I7
sS'l'
I3
sS'j'
I3
sS'h'
I7
sS'f'
I3
sS'd'
I7
sS'b'
I7
sS'`'
I3
sS'^'
I6
sS'\\'
I4
sS'Z'
I9
sS'X'
I9
sS'V'
I9
sS'T'
I7
sS'R'
I8
sS'P'
I8
sS'N'
I9
sS'L'
I7
sS'J'
I7
sS'H'
I9
sS'F'
I8
sS'D'
I9
sS'B'
I8
sS'@'
I12
sS'>'
I7
sS'<'
I7
sS':'
I3
sS'8'
I7
sS'6'
I7
sS'4'
I7
sS'2'
I7
sS'0'
I7
sS'.'
I3
sS','
I4
sS'*'
I5
sS'('
I4
sS'&'
I9
sS'$'
I7
sS'"'
I5
sS' '
I4
ssS'courier-bold-14.pil'
p58
(dp59
S'\177'
I0
sS'}'
I9
sS'{'
I9
sS'y'
I9
sS'w'
I9
sS'u'
I9
sS's'
I9
sS'q'
I9
sS'o'
I9
sS'm'
I9
sS'k'
I9
sS'i'
I9
sS'g'
I9
sS'e'
I9
sS'c'
I9
sS'a'
I9
sS'_'
I9
sS']'
I9
sS'['
I9
sS'Y'
I9
sS'W'
I9
sS'U'
I9
sS'S'
I9
sS'Q'
I9
sS'O'
I9
sS'M'
I9
sS'K'
I9
sS'I'
I9
sS'G'
I9
sS'E'
I9
sS'C'
I9
sS'A'
I9
sS'?'
I9
sS'='
I9
sS';'
I9
sS'9'
I9
sS'7'
I9
sS'5'
I9
sS'3'
I9
sS'1'
I9
sS'/'
I9
sS'-'
I9
sS'+'
I9
sS')'
I9
sS"'"
I9
sS'%'
I9
sS'#'
I9
sS'!'
I9
sS'~'
I9
sS'|'
I9
sS'z'
I9
sS'x'
I9
sS'v'
I9
sS't'
I9
sS'r'
I9
sS'p'
I9
sS'n'
I9
sS'l'
I9
sS'j'
I9
sS'h'
I9
sS'f'
I9
sS'd'
I9
sS'b'
I9
sS'`'
I9
sS'^'
I9
sS'\\'
I9
sS'Z'
I9
sS'X'
I9
sS'V'
I9
sS'T'
I9
sS'R'
I9
sS'P'
I9
sS'N'
I9
sS'L'
I9
sS'J'
I9
sS'H'
I9
sS'F'
I9
sS'D'
I9
sS'B'
I9
sS'@'
I9
sS'>'
I9
sS'<'
I9
sS':'
I9
sS'8'
I9
sS'6'
I9
sS'4'
I9
sS'2'
I9
sS'0'
I9
sS'.'
I9
sS','
I9
sS'*'
I9
sS'('
I9
sS'&'
I9
sS'$'
I9
sS'"'
I9
sS' '
I9
ssS'courier-12.pil'
p60
(dp61
S'\177'
I0
sS'}'
I7
sS'{'
I7
sS'y'
I7
sS'w'
I7
sS'u'
I7
sS's'
I7
sS'q'
I7
sS'o'
I7
sS'm'
I7
sS'k'
I7
sS'i'
I7
sS'g'
I7
sS'e'
I7
sS'c'
I7
sS'a'
I7
sS'_'
I7
sS']'
I7
sS'['
I7
sS'Y'
I7
sS'W'
I7
sS'U'
I7
sS'S'
I7
sS'Q'
I7
sS'O'
I7
sS'M'
I7
sS'K'
I7
sS'I'
I7
sS'G'
I7
sS'E'
I7
sS'C'
I7
sS'A'
I7
sS'?'
I7
sS'='
I7
sS';'
I7
sS'9'
I7
sS'7'
I7
sS'5'
I7
sS'3'
I7
sS'1'
I7
sS'/'
I7
sS'-'
I7
sS'+'
I7
sS')'
I7
sS"'"
I7
sS'%'
I7
sS'#'
I7
sS'!'
I7
sS'~'
I7
sS'|'
I7
sS'z'
I7
sS'x'
I7
sS'v'
I7
sS't'
I7
sS'r'
I7
sS'p'
I7
sS'n'
I7
sS'l'
I7
sS'j'
I7
sS'h'
I7
sS'f'
I7
sS'd'
I7
sS'b'
I7
sS'`'
I7
sS'^'
I7
sS'\\'
I7
sS'Z'
I7
sS'X'
I7
sS'V'
I7
sS'T'
I7
sS'R'
I7
sS'P'
I7
sS'N'
I7
sS'L'
I7
sS'J'
I7
sS'H'
I7
sS'F'
I7
sS'D'
I7
sS'B'
I7
sS'@'
I7
sS'>'
I7
sS'<'
I7
sS':'
I7
sS'8'
I7
sS'6'
I7
sS'4'
I7
sS'2'
I7
sS'0'
I7
sS'.'
I7
sS','
I7
sS'*'
I7
sS'('
I7
sS'&'
I7
sS'$'
I7
sS'"'
I7
sS' '
I7
ssS'times-12.pil'
p62
(dp63
S'\177'
I0
sS'}'
I6
sS'{'
I6
sS'y'
I6
sS'w'
I9
sS'u'
I6
sS's'
I6
sS'q'
I6
sS'o'
I6
sS'm'
I9
sS'k'
I6
sS'i'
I3
sS'g'
I6
sS'e'
I6
sS'c'
I6
sS'a'
I6
sS'_'
I6
sS']'
I4
sS'['
I4
sS'Y'
I9
sS'W'
I12
sS'U'
I9
sS'S'
I7
sS'Q'
I9
sS'O'
I9
sS'M'
I11
sS'K'
I9
sS'I'
I4
sS'G'
I9
sS'E'
I8
sS'C'
I8
sS'A'
I9
sS'?'
I5
sS'='
I7
sS';'
I3
sS'9'
I6
sS'7'
I6
sS'5'
I6
sS'3'
I6
sS'1'
I6
sS'/'
I3
sS'-'
I7
sS'+'
I7
sS')'
I5
sS"'"
I4
sS'%'
I10
sS'#'
I6
sS'!'
I3
sS'~'
I7
sS'|'
I3
sS'z'
I6
sS'x'
I6
sS'v'
I6
sS't'
I4
sS'r'
I4
sS'p'
I6
sS'n'
I6
sS'l'
I3
sS'j'
I3
sS'h'
I6
sS'f'
I4
sS'd'
I6
sS'b'
I6
sS'`'
I4
sS'^'
I6
sS'\\'
I3
sS'Z'
I8
sS'X'
I9
sS'V'
I9
sS'T'
I7
sS'R'
I8
sS'P'
I7
sS'N'
I9
sS'L'
I7
sS'J'
I5
sS'H'
I9
sS'F'
I7
sS'D'
I9
sS'B'
I8
sS'@'
I11
sS'>'
I7
sS'<'
I7
sS':'
I3
sS'8'
I6
sS'6'
I6
sS'4'
I6
sS'2'
I6
sS'0'
I6
sS'.'
I3
sS','
I3
sS'*'
I6
sS'('
I5
sS'&'
I10
sS'$'
I6
sS'"'
I5
sS' '
I3
ssS'courier-18.pil'
p64
(dp65
S'\177'
I0
sS'}'
I11
sS'{'
I11
sS'y'
I11
sS'w'
I11
sS'u'
I11
sS's'
I11
sS'q'
I11
sS'o'
I11
sS'm'
I11
sS'k'
I11
sS'i'
I11
sS'g'
I11
sS'e'
I11
sS'c'
I11
sS'a'
I11
sS'_'
I11
sS']'
I11
sS'['
I11
sS'Y'
I11
sS'W'
I11
sS'U'
I11
sS'S'
I11
sS'Q'
I11
sS'O'
I11
sS'M'
I11
sS'K'
I11
sS'I'
I11
sS'G'
I11
sS'E'
I11
sS'C'
I11
sS'A'
I11
sS'?'
I11
sS'='
I11
sS';'
I11
sS'9'
I11
sS'7'
I11
sS'5'
I11
sS'3'
I11
sS'1'
I11
sS'/'
I11
sS'-'
I11
sS'+'
I11
sS')'
I11
sS"'"
I11
sS'%'
I11
sS'#'
I11
sS'!'
I11
sS'~'
I11
sS'|'
I11
sS'z'
I11
sS'x'
I11
sS'v'
I11
sS't'
I11
sS'r'
I11
sS'p'
I11
sS'n'
I11
sS'l'
I11
sS'j'
I11
sS'h'
I11
sS'f'
I11
sS'd'
I11
sS'b'
I11
sS'`'
I11
sS'^'
I11
sS'\\'
I11
sS'Z'
I11
sS'X'
I11
sS'V'
I11
sS'T'
I11
sS'R'
I11
sS'P'
I11
sS'N'
I11
sS'L'
I11
sS'J'
I11
sS'H'
I11
sS'F'
I11
sS'D'
I11
sS'B'
I11
sS'@'
I11
sS'>'
I11
sS'<'
I11
sS':'
I11
sS'8'
I11
sS'6'
I11
sS'4'
I11
sS'2'
I11
sS'0'
I11
sS'.'
I11
sS','
I11
sS'*'
I11
sS'('
I11
sS'&'
I11
sS'$'
I11
sS'"'
I11
sS' '
I11
ssS'helvetica-bold-14.pil'
p66
(dp67
S'\177'
I0
sS'}'
I6
sS'{'
I6
sS'y'
I8
sS'w'
I10
sS'u'
I9
sS's'
I8
sS'q'
I9
sS'o'
I9
sS'm'
I12
sS'k'
I8
sS'i'
I4
sS'g'
I9
sS'e'
I8
sS'c'
I8
sS'a'
I8
sS'_'
I8
sS']'
I5
sS'['
I5
sS'Y'
I10
sS'W'
I14
sS'U'
I11
sS'S'
I10
sS'Q'
I12
sS'O'
I12
sS'M'
I13
sS'K'
I10
sS'I'
I4
sS'G'
I11
sS'E'
I9
sS'C'
I11
sS'A'
I10
sS'?'
I9
sS'='
I9
sS';'
I5
sS'9'
I8
sS'7'
I8
sS'5'
I8
sS'3'
I8
sS'1'
I8
sS'/'
I4
sS'-'
I9
sS'+'
I9
sS')'
I5
sS"'"
I5
sS'%'
I13
sS'#'
I9
sS'!'
I4
sS'~'
I9
sS'|'
I4
sS'z'
I6
sS'x'
I7
sS'v'
I8
sS't'
I5
sS'r'
I6
sS'p'
I9
sS'n'
I9
sS'l'
I4
sS'j'
I4
sS'h'
I9
sS'f'
I4
sS'd'
I9
sS'b'
I9
sS'`'
I5
sS'^'
I8
sS'\\'
I4
sS'Z'
I9
sS'X'
I9
sS'V'
I10
sS'T'
I8
sS'R'
I11
sS'P'
I10
sS'N'
I11
sS'L'
I8
sS'J'
I8
sS'H'
I10
sS'F'
I9
sS'D'
I11
sS'B'
I10
sS'@'
I14
sS'>'
I8
sS'<'
I8
sS':'
I5
sS'8'
I8
sS'6'
I8
sS'4'
I8
sS'2'
I8
sS'0'
I8
sS'.'
I4
sS','
I4
sS'*'
I6
sS'('
I5
sS'&'
I11
sS'$'
I8
sS'"'
I7
sS' '
I4
ssS'times-bold-14.pil'
p68
(dp69
S'\177'
I0
sS'}'
I7
sS'{'
I7
sS'y'
I7
sS'w'
I9
sS'u'
I7
sS's'
I6
sS'q'
I7
sS'o'
I7
sS'm'
I12
sS'k'
I8
sS'i'
I4
sS'g'
I7
sS'e'
I7
sS'c'
I7
sS'a'
I7
sS'_'
I7
sS']'
I5
sS'['
I5
sS'Y'
I10
sS'W'
I15
sS'U'
I9
sS'S'
I9
sS'Q'
I11
sS'O'
I11
sS'M'
I13
sS'K'
I11
sS'I'
I6
sS'G'
I10
sS'E'
I10
sS'C'
I10
sS'A'
I10
sS'?'
I7
sS'='
I8
sS';'
I5
sS'9'
I7
sS'7'
I7
sS'5'
I7
sS'3'
I7
sS'1'
I7
sS'/'
I4
sS'-'
I8
sS'+'
I8
sS')'
I5
sS"'"
I4
sS'%'
I14
sS'#'
I7
sS'!'
I4
sS'~'
I8
sS'|'
I3
sS'z'
I7
sS'x'
I7
sS'v'
I8
sS't'
I5
sS'r'
I6
sS'p'
I8
sS'n'
I8
sS'l'
I5
sS'j'
I4
sS'h'
I8
sS'f'
I5
sS'd'
I7
sS'b'
I8
sS'`'
I4
sS'^'
I8
sS'\\'
I4
sS'Z'
I9
sS'X'
I10
sS'V'
I10
sS'T'
I10
sS'R'
I11
sS'P'
I9
sS'N'
I10
sS'L'
I9
sS'J'
I7
sS'H'
I12
sS'F'
I10
sS'D'
I11
sS'B'
I10
sS'@'
I14
sS'>'
I8
sS'<'
I8
sS':'
I5
sS'8'
I7
sS'6'
I7
sS'4'
I7
sS'2'
I7
sS'0'
I7
sS'.'
I4
sS','
I3
sS'*'
I7
sS'('
I5
sS'&'
I12
sS'$'
I7
sS'"'
I7
sS' '
I4
ssS'symbol-12.pil'
p70
(dp71
S'\177'
I0
sS'}'
I6
sS'{'
I6
sS'y'
I9
sS'w'
I9
sS'u'
I8
sS's'
I8
sS'q'
I7
sS'o'
I7
sS'm'
I8
sS'k'
I7
sS'i'
I3
sS'g'
I7
sS'e'
I6
sS'c'
I7
sS'a'
I8
sS'_'
I6
sS']'
I5
sS'['
I5
sS'Y'
I10
sS'W'
I10
sS'U'
I9
sS'S'
I7
sS'Q'
I9
sS'O'
I9
sS'M'
I11
sS'K'
I9
sS'I'
I4
sS'G'
I8
sS'E'
I8
sS'C'
I9
sS'A'
I9
sS'?'
I6
sS'='
I7
sS';'
I3
sS'9'
I6
sS'7'
I6
sS'5'
I6
sS'3'
I6
sS'1'
I6
sS'/'
I3
sS'-'
I7
sS'+'
I7
sS')'
I5
sS"'"
I6
sS'%'
I10
sS'#'
I7
sS'!'
I4
sS'~'
I7
sS'|'
I3
sS'z'
I6
sS'x'
I6
sS'v'
I9
sS't'
I6
sS'r'
I7
sS'p'
I7
sS'n'
I7
sS'l'
I7
sS'j'
I8
sS'h'
I8
sS'f'
I8
sS'd'
I7
sS'b'
I7
sS'`'
I6
sS'^'
I8
sS'\\'
I9
sS'Z'
I8
sS'X'
I8
sS'V'
I7
sS'T'
I8
sS'R'
I7
sS'P'
I9
sS'N'
I9
sS'L'
I9
sS'J'
I8
sS'H'
I9
sS'F'
I10
sS'D'
I8
sS'B'
I8
sS'@'
I7
sS'>'
I7
sS'<'
I7
sS':'
I3
sS'8'
I6
sS'6'
I6
sS'4'
I6
sS'2'
I6
sS'0'
I6
sS'.'
I3
sS','
I3
sS'*'
I6
sS'('
I5
sS'&'
I10
sS'$'
I7
sS'"'
I9
sS' '
I3
ssS'helvetica-bold-18.pil'
p72
(dp73
S'\177'
I0
sS'}'
I8
sS'{'
I8
sS'y'
I9
sS'w'
I13
sS'u'
I11
sS's'
I10
sS'q'
I12
sS'o'
I12
sS'm'
I15
sS'k'
I10
sS'i'
I5
sS'g'
I12
sS'e'
I11
sS'c'
I10
sS'a'
I10
sS'_'
I10
sS']'
I6
sS'['
I6
sS'Y'
I13
sS'W'
I17
sS'U'
I13
sS'S'
I12
sS'Q'
I16
sS'O'
I16
sS'M'
I16
sS'K'
I14
sS'I'
I5
sS'G'
I14
sS'E'
I12
sS'C'
I14
sS'A'
I13
sS'?'
I10
sS'='
I10
sS';'
I6
sS'9'
I10
sS'7'
I10
sS'5'
I10
sS'3'
I10
sS'1'
I10
sS'/'
I5
sS'-'
I11
sS'+'
I11
sS')'
I7
sS"'"
I5
sS'%'
I16
sS'#'
I11
sS'!'
I5
sS'~'
I11
sS'|'
I5
sS'z'
I10
sS'x'
I9
sS'v'
I9
sS't'
I6
sS'r'
I7
sS'p'
I12
sS'n'
I11
sS'l'
I5
sS'j'
I5
sS'h'
I11
sS'f'
I7
sS'd'
I12
sS'b'
I12
sS'`'
I5
sS'^'
I10
sS'\\'
I5
sS'Z'
I11
sS'X'
I12
sS'V'
I13
sS'T'
I11
sS'R'
I13
sS'P'
I12
sS'N'
I14
sS'L'
I11
sS'J'
I10
sS'H'
I13
sS'F'
I12
sS'D'
I14
sS'B'
I13
sS'@'
I18
sS'>'
I11
sS'<'
I11
sS':'
I6
sS'8'
I10
sS'6'
I10
sS'4'
I10
sS'2'
I10
sS'0'
I10
sS'.'
I5
sS','
I5
sS'*'
I9
sS'('
I7
sS'&'
I14
sS'$'
I10
sS'"'
I8
sS' '
I5
ssS'courier-10.pil'
p74
(dp75
S'\177'
I0
sS'}'
I6
sS'{'
I6
sS'y'
I6
sS'w'
I6
sS'u'
I6
sS's'
I6
sS'q'
I6
sS'o'
I6
sS'm'
I6
sS'k'
I6
sS'i'
I6
sS'g'
I6
sS'e'
I6
sS'c'
I6
sS'a'
I6
sS'_'
I6
sS']'
I6
sS'['
I6
sS'Y'
I6
sS'W'
I6
sS'U'
I6
sS'S'
I6
sS'Q'
I6
sS'O'
I6
sS'M'
I6
sS'K'
I6
sS'I'
I6
sS'G'
I6
sS'E'
I6
sS'C'
I6
sS'A'
I6
sS'?'
I6
sS'='
I6
sS';'
I6
sS'9'
I6
sS'7'
I6
sS'5'
I6
sS'3'
I6
sS'1'
I6
sS'/'
I6
sS'-'
I6
sS'+'
I6
sS')'
I6
sS"'"
I6
sS'%'
I6
sS'#'
I6
sS'!'
I6
sS'~'
I6
sS'|'
I6
sS'z'
I6
sS'x'
I6
sS'v'
I6
sS't'
I6
sS'r'
I6
sS'p'
I6
sS'n'
I6
sS'l'
I6
sS'j'
I6
sS'h'
I6
sS'f'
I6
sS'd'
I6
sS'b'
I6
sS'`'
I6
sS'^'
I6
sS'\\'
I6
sS'Z'
I6
sS'X'
I6
sS'V'
I6
sS'T'
I6
sS'R'
I6
sS'P'
I6
sS'N'
I6
sS'L'
I6
sS'J'
I6
sS'H'
I6
sS'F'
I6
sS'D'
I6
sS'B'
I6
sS'@'
I6
sS'>'
I6
sS'<'
I6
sS':'
I6
sS'8'
I6
sS'6'
I6
sS'4'
I6
sS'2'
I6
sS'0'
I6
sS'.'
I6
sS','
I6
sS'*'
I6
sS'('
I6
sS'&'
I6
sS'$'
I6
sS'"'
I6
sS' '
I6
ssS'helvetica-8.pil'
p76
(dp77
S'\177'
I0
sS'}'
I2
sS'{'
I2
sS'y'
I4
sS'w'
I6
sS'u'
I4
sS's'
I4
sS'q'
I5
sS'o'
I5
sS'm'
I6
sS'k'
I4
sS'i'
I2
sS'g'
I5
sS'e'
I4
sS'c'
I4
sS'a'
I4
sS'_'
I5
sS']'
I2
sS'['
I2
sS'Y'
I6
sS'W'
I7
sS'U'
I6
sS'S'
I6
sS'Q'
I6
sS'O'
I6
sS'M'
I7
sS'K'
I6
sS'I'
I2
sS'G'
I6
sS'E'
I6
sS'C'
I6
sS'A'
I6
sS'?'
I5
sS'='
I4
sS';'
I2
sS'9'
I5
sS'7'
I5
sS'5'
I5
sS'3'
I5
sS'1'
I5
sS'/'
I2
sS'-'
I6
sS'+'
I5
sS')'
I3
sS"'"
I2
sS'%'
I7
sS'#'
I5
sS'!'
I2
sS'~'
I6
sS'|'
I2
sS'z'
I4
sS'x'
I5
sS'v'
I5
sS't'
I3
sS'r'
I3
sS'p'
I5
sS'n'
I5
sS'l'
I2
sS'j'
I2
sS'h'
I5
sS'f'
I3
sS'd'
I5
sS'b'
I5
sS'`'
I2
sS'^'
I5
sS'\\'
I2
sS'Z'
I6
sS'X'
I6
sS'V'
I6
sS'T'
I4
sS'R'
I6
sS'P'
I6
sS'N'
I6
sS'L'
I5
sS'J'
I4
sS'H'
I6
sS'F'
I5
sS'D'
I6
sS'B'
I6
sS'@'
I9
sS'>'
I5
sS'<'
I5
sS':'
I2
sS'8'
I5
sS'6'
I5
sS'4'
I5
sS'2'
I5
sS'0'
I5
sS'.'
I2
sS','
I2
sS'*'
I3
sS'('
I3
sS'&'
I6
sS'$'
I5
sS'"'
I3
sS' '
I2
ssS'courier-bold-8.pil'
p78
(dp79
S'\177'
I0
sS'}'
I5
sS'{'
I5
sS'y'
I5
sS'w'
I5
sS'u'
I5
sS's'
I5
sS'q'
I5
sS'o'
I5
sS'm'
I5
sS'k'
I5
sS'i'
I5
sS'g'
I5
sS'e'
I5
sS'c'
I5
sS'a'
I5
sS'_'
I5
sS']'
I5
sS'['
I5
sS'Y'
I5
sS'W'
I5
sS'U'
I5
sS'S'
I5
sS'Q'
I5
sS'O'
I5
sS'M'
I5
sS'K'
I5
sS'I'
I5
sS'G'
I5
sS'E'
I5
sS'C'
I5
sS'A'
I5
sS'?'
I5
sS'='
I5
sS';'
I5
sS'9'
I5
sS'7'
I5
sS'5'
I5
sS'3'
I5
sS'1'
I5
sS'/'
I5
sS'-'
I5
sS'+'
I5
sS')'
I5
sS"'"
I5
sS'%'
I5
sS'#'
I5
sS'!'
I5
sS'~'
I5
sS'|'
I5
sS'z'
I5
sS'x'
I5
sS'v'
I5
sS't'
I5
sS'r'
I5
sS'p'
I5
sS'n'
I5
sS'l'
I5
sS'j'
I5
sS'h'
I5
sS'f'
I5
sS'd'
I5
sS'b'
I5
sS'`'
I5
sS'^'
I5
sS'\\'
I5
sS'Z'
I5
sS'X'
I5
sS'V'
I5
sS'T'
I5
sS'R'
I5
sS'P'
I5
sS'N'
I5
sS'L'
I5
sS'J'
I5
sS'H'
I5
sS'F'
I5
sS'D'
I5
sS'B'
I5
sS'@'
I5
sS'>'
I5
sS'<'
I5
sS':'
I5
sS'8'
I5
sS'6'
I5
sS'4'
I5
sS'2'
I5
sS'0'
I5
sS'.'
I5
sS','
I5
sS'*'
I5
sS'('
I5
sS'&'
I5
sS'$'
I5
sS'"'
I5
sS' '
I5
ssS'courier-8.pil'
p80
(dp81
S'\177'
I0
sS'}'
I5
sS'{'
I5
sS'y'
I5
sS'w'
I5
sS'u'
I5
sS's'
I5
sS'q'
I5
sS'o'
I5
sS'm'
I5
sS'k'
I5
sS'i'
I5
sS'g'
I5
sS'e'
I5
sS'c'
I5
sS'a'
I5
sS'_'
I5
sS']'
I5
sS'['
I5
sS'Y'
I5
sS'W'
I5
sS'U'
I5
sS'S'
I5
sS'Q'
I5
sS'O'
I5
sS'M'
I5
sS'K'
I5
sS'I'
I5
sS'G'
I5
sS'E'
I5
sS'C'
I5
sS'A'
I5
sS'?'
I5
sS'='
I5
sS';'
I5
sS'9'
I5
sS'7'
I5
sS'5'
I5
sS'3'
I5
sS'1'
I5
sS'/'
I5
sS'-'
I5
sS'+'
I5
sS')'
I5
sS"'"
I5
sS'%'
I5
sS'#'
I5
sS'!'
I5
sS'~'
I5
sS'|'
I5
sS'z'
I5
sS'x'
I5
sS'v'
I5
sS't'
I5
sS'r'
I5
sS'p'
I5
sS'n'
I5
sS'l'
I5
sS'j'
I5
sS'h'
I5
sS'f'
I5
sS'd'
I5
sS'b'
I5
sS'`'
I5
sS'^'
I5
sS'\\'
I5
sS'Z'
I5
sS'X'
I5
sS'V'
I5
sS'T'
I5
sS'R'
I5
sS'P'
I5
sS'N'
I5
sS'L'
I5
sS'J'
I5
sS'H'
I5
sS'F'
I5
sS'D'
I5
sS'B'
I5
sS'@'
I5
sS'>'
I5
sS'<'
I5
sS':'
I5
sS'8'
I5
sS'6'
I5
sS'4'
I5
sS'2'
I5
sS'0'
I5
sS'.'
I5
sS','
I5
sS'*'
I5
sS'('
I5
sS'&'
I5
sS'$'
I5
sS'"'
I5
sS' '
I5
ssS'helvetica-bold-12.pil'
p82
(dp83
S'\177'
I0
sS'}'
I5
sS'{'
I5
sS'y'
I8
sS'w'
I11
sS'u'
I7
sS's'
I7
sS'q'
I7
sS'o'
I7
sS'm'
I11
sS'k'
I7
sS'i'
I3
sS'g'
I7
sS'e'
I7
sS'c'
I7
sS'a'
I7
sS'_'
I7
sS']'
I4
sS'['
I4
sS'Y'
I8
sS'W'
I10
sS'U'
I9
sS'S'
I9
sS'Q'
I10
sS'O'
I10
sS'M'
I11
sS'K'
I9
sS'I'
I4
sS'G'
I10
sS'E'
I8
sS'C'
I8
sS'A'
I8
sS'?'
I8
sS'='
I7
sS';'
I4
sS'9'
I7
sS'7'
I7
sS'5'
I7
sS'3'
I7
sS'1'
I7
sS'/'
I4
sS'-'
I8
sS'+'
I7
sS')'
I6
sS"'"
I4
sS'%'
I12
sS'#'
I8
sS'!'
I4
sS'~'
I7
sS'|'
I4
sS'z'
I6
sS'x'
I7
sS'v'
I8
sS't'
I5
sS'r'
I5
sS'p'
I7
sS'n'
I7
sS'l'
I3
sS'j'
I3
sS'h'
I7
sS'f'
I5
sS'd'
I7
sS'b'
I7
sS'`'
I4
sS'^'
I7
sS'\\'
I4
sS'Z'
I7
sS'X'
I8
sS'V'
I8
sS'T'
I8
sS'R'
I9
sS'P'
I8
sS'N'
I9
sS'L'
I7
sS'J'
I7
sS'H'
I9
sS'F'
I7
sS'D'
I9
sS'B'
I9
sS'@'
I12
sS'>'
I7
sS'<'
I7
sS':'
I4
sS'8'
I7
sS'6'
I7
sS'4'
I7
sS'2'
I7
sS'0'
I7
sS'.'
I4
sS','
I4
sS'*'
I6
sS'('
I6
sS'&'
I9
sS'$'
I7
sS'"'
I5
sS' '
I4
ssS'times-bold-18.pil'
p84
(dp85
S'\177'
I0
sS'}'
I8
sS'{'
I8
sS'y'
I9
sS'w'
I12
sS'u'
I11
sS's'
I7
sS'q'
I9
sS'o'
I9
sS'm'
I16
sS'k'
I10
sS'i'
I5
sS'g'
I9
sS'e'
I8
sS'c'
I8
sS'a'
I9
sS'_'
I9
sS']'
I6
sS'['
I6
sS'Y'
I13
sS'W'
I18
sS'U'
I13
sS'S'
I11
sS'Q'
I15
sS'O'
I15
sS'M'
I17
sS'K'
I15
sS'I'
I7
sS'G'
I15
sS'E'
I12
sS'C'
I13
sS'A'
I13
sS'?'
I9
sS'='
I11
sS';'
I5
sS'9'
I9
sS'7'
I9
sS'5'
I9
sS'3'
I9
sS'1'
I9
sS'/'
I6
sS'-'
I11
sS'+'
I11
sS')'
I6
sS"'"
I6
sS'%'
I18
sS'#'
I9
sS'!'
I6
sS'~'
I10
sS'|'
I4
sS'z'
I8
sS'x'
I9
sS'v'
I9
sS't'
I7
sS'r'
I8
sS'p'
I10
sS'n'
I11
sS'l'
I6
sS'j'
I5
sS'h'
I11
sS'f'
I6
sS'd'
I10
sS'b'
I9
sS'`'
I6
sS'^'
I11
sS'\\'
I5
sS'Z'
I12
sS'X'
I13
sS'V'
I14
sS'T'
I12
sS'R'
I13
sS'P'
I11
sS'N'
I14
sS'L'
I12
sS'J'
I9
sS'H'
I15
sS'F'
I11
sS'D'
I14
sS'B'
I12
sS'@'
I17
sS'>'
I11
sS'<'
I11
sS':'
I5
sS'8'
I9
sS'6'
I9
sS'4'
I9
sS'2'
I9
sS'0'
I9
sS'.'
I5
sS','
I5
sS'*'
I9
sS'('
I6
sS'&'
I16
sS'$'
I9
sS'"'
I10
sS' '
I4
ss.(dp1
S'helvetica-bold-10.pil'
p2
I8
sS'courier-bold-24.pil'
p3
I15
sS'courier-24.pil'
p4
I14
sS'symbol-14.pil'
p5
I10
sS'times-18.pil'
p6
I13
sS'times-10.pil'
p7
I7
sS'symbol-10.pil'
p8
I7
sS'symbol-8.pil'
p9
I6
sS'helvetica-24.pil'
p10
I19
sS'symbol-18.pil'
p11
I13
sS'times-24.pil'
p12
I17
sS'times-bold-12.pil'
p13
I9
sS'times-bold-8.pil'
p14
I5
sS'courier-bold-12.pil'
p15
I8
sS'times-14.pil'
p16
I10
sS'helvetica-14.pil'
p17
I11
sS'symbol-24.pil'
p18
I17
sS'helvetica-bold-8.pil'
p19
I6
sS'times-bold-24.pil'
p20
I17
sS'courier-bold-10.pil'
p21
I6
sS'helvetica-10.pil'
p22
I8
sS'times-bold-10.pil'
p23
I7
sS'times-8.pil'
p24
I5
sS'helvetica-bold-24.pil'
p25
I19
sS'courier-bold-18.pil'
p26
I11
sS'helvetica-18.pil'
p27
I14
sS'courier-14.pil'
p28
I9
sS'helvetica-12.pil'
p29
I9
sS'courier-bold-14.pil'
p30
I9
sS'courier-12.pil'
p31
I8
sS'times-12.pil'
p32
I9
sS'courier-18.pil'
p33
I11
sS'helvetica-bold-14.pil'
p34
I11
sS'times-bold-14.pil'
p35
I10
sS'symbol-12.pil'
p36
I9
sS'helvetica-bold-18.pil'
p37
I14
sS'courier-10.pil'
p38
I6
sS'helvetica-8.pil'
p39
I6
sS'courier-bold-8.pil'
p40
I5
sS'courier-8.pil'
p41
I5
sS'helvetica-bold-12.pil'
p42
I9
sS'times-bold-18.pil'
p43
I13
s.(dp1
S'helvetica-bold-10.pil'
p2
I2
sS'courier-bold-24.pil'
p3
I5
sS'courier-24.pil'
p4
I5
sS'symbol-14.pil'
p5
I3
sS'times-18.pil'
p6
I4
sS'times-10.pil'
p7
I2
sS'symbol-10.pil'
p8
I2
sS'symbol-8.pil'
p9
I2
sS'helvetica-24.pil'
p10
I5
sS'symbol-18.pil'
p11
I4
sS'times-24.pil'
p12
I5
sS'times-bold-12.pil'
p13
I3
sS'times-bold-8.pil'
p14
I2
sS'courier-bold-12.pil'
p15
I3
sS'times-14.pil'
p16
I3
sS'helvetica-14.pil'
p17
I3
sS'symbol-24.pil'
p18
I5
sS'helvetica-bold-8.pil'
p19
I1
sS'times-bold-24.pil'
p20
I5
sS'courier-bold-10.pil'
p21
I2
sS'helvetica-10.pil'
p22
I2
sS'times-bold-10.pil'
p23
I3
sS'times-8.pil'
p24
I1
sS'helvetica-bold-24.pil'
p25
I5
sS'courier-bold-18.pil'
p26
I4
sS'helvetica-18.pil'
p27
I4
sS'courier-14.pil'
p28
I3
sS'helvetica-12.pil'
p29
I3
sS'courier-bold-14.pil'
p30
I3
sS'courier-12.pil'
p31
I3
sS'times-12.pil'
p32
I3
sS'courier-18.pil'
p33
I4
sS'helvetica-bold-14.pil'
p34
I3
sS'times-bold-14.pil'
p35
I3
sS'symbol-12.pil'
p36
I3
sS'helvetica-bold-18.pil'
p37
I4
sS'courier-10.pil'
p38
I2
sS'helvetica-8.pil'
p39
I1
sS'courier-bold-8.pil'
p40
I1
sS'courier-8.pil'
p41
I2
sS'helvetica-bold-12.pil'
p42
I3
sS'times-bold-18.pil'
p43
I4
s.