(iML.DecTree.DecTree
DecTreeNode
p1
(dp2
S'children'
p3
(lp4
(iML.DecTree.DecTree
DecTreeNode
(dp5
g3
(lsS'data'
p6
F0
sS'trainingExamples'
p7
(lsS'examples'
p8
(lp9
(lp10
I0
aI0
aI0
aI1
aI1
aI0
aI1
aI1
aI1
aI1
aI0
aa(lp11
I1
aI1
aI0
aI0
aI1
aI0
aI0
aI0
aI1
aI0
aI0
aa(lp12
I1
aI0
aI1
aI0
aI1
aI0
aI1
aI0
aI0
aI0
aI0
aa(lp13
I1
aI0
aI1
aI1
aI1
aI0
aI0
aI0
aI0
aI1
aI0
aa(lp14
I1
aI1
aI1
aI0
aI1
aI0
aI0
aI1
aI0
aI1
aI0
aa(lp15
I0
aI1
aI1
aI1
aI0
aI0
aI0
aI0
aI0
aI1
aI0
aa(lp16
I0
aI0
aI0
aI0
aI1
aI0
aI0
aI1
aI0
aI1
aI0
aa(lp17
I0
aI1
aI0
aI1
aI0
aI0
aI0
aI1
aI0
aI0
aI0
aa(lp18
I0
aI1
aI0
aI1
aI0
aI0
aI0
aI0
aI0
aI1
aI0
aa(lp19
I1
aI0
aI0
aI1
aI0
aI0
aI0
aI0
aI0
aI1
aI0
aa(lp20
I1
aI1
aI0
aI0
aI0
aI0
aI1
aI0
aI1
aI0
aI0
aa(lp21
I0
aI1
aI1
aI1
aI0
aI0
aI1
aI1
aI0
aI0
aI0
aa(lp22
I1
aI0
aI1
aI1
aI0
aI0
aI1
aI0
aI0
aI1
aI0
aa(lp23
I1
aI0
aI0
aI0
aI1
aI0
aI1
aI1
aI0
aI1
aI0
aa(lp24
I1
aI1
aI1
aI0
aI0
aI0
aI0
aI1
aI0
aI1
aI0
aa(lp25
I0
aI1
aI1
aI1
aI1
aI0
aI0
aI0
aI1
aI1
aI0
aa(lp26
I0
aI0
aI1
aI0
aI1
aI0
aI0
aI1
aI0
aI1
aI0
aa(lp27
I1
aI0
aI1
aI1
aI1
aI0
aI0
aI0
aI1
aI0
aI0
aa(lp28
I1
aI1
aI1
aI1
aI1
aI0
aI1
aI1
aI1
aI1
aI0
aa(lp29
I0
aI0
aI0
aI1
aI1
aI0
aI0
aI0
aI0
aI1
aI0
aa(lp30
I1
aI1
aI1
aI0
aI0
aI0
aI0
aI0
aI0
aI0
aI0
aa(lp31
I0
aI1
aI0
aI1
aI1
aI0
aI1
aI1
aI0
aI0
aI0
aa(lp32
I0
aI1
aI0
aI0
aI1
aI0
aI0
aI1
aI0
aI1
aI0
aa(lp33
I1
aI0
aI0
aI0
aI1
aI0
aI1
aI1
aI0
aI1
aI0
aa(lp34
I1
aI1
aI0
aI0
aI1
aI0
aI1
aI0
aI0
aI0
aI0
aa(lp35
I1
aI1
aI0
aI1
aI0
aI0
aI0
aI0
aI0
aI0
aI0
aa(lp36
I0
aI1
aI1
aI0
aI1
aI0
aI0
aI1
aI0
aI0
aI0
aa(lp37
I1
aI0
aI1
aI1
aI0
aI0
aI0
aI0
aI0
aI1
aI0
aa(lp38
I1
aI1
aI0
aI0
aI0
aI0
aI1
aI1
aI1
aI1
aI0
aa(lp39
I1
aI1
aI0
aI1
aI1
aI0
aI1
aI1
aI1
aI1
aI0
aa(lp40
I0
aI0
aI1
aI1
aI1
aI0
aI0
aI1
aI1
aI1
aI0
aa(lp41
I1
aI0
aI0
aI1
aI0
aI0
aI0
aI0
aI0
aI0
aI0
aa(lp42
I0
aI1
aI1
aI0
aI0
aI0
aI1
aI1
aI1
aI0
aI0
aa(lp43
I0
aI0
aI1
aI1
aI0
aI0
aI0
aI0
aI1
aI1
aI0
aa(lp44
I0
aI1
aI1
aI0
aI0
aI0
aI0
aI1
aI1
aI1
aI0
aa(lp45
I1
aI1
aI0
aI1
aI0
aI0
aI1
aI1
aI1
aI0
aI0
aa(lp46
I1
aI1
aI0
aI0
aI0
aI0
aI0
aI1
aI1
aI0
aI0
aa(lp47
I0
aI0
aI0
aI0
aI0
aI0
aI1
aI0
aI0
aI0
aI0
aa(lp48
I0
aI1
aI0
aI1
aI1
aI0
aI0
aI1
aI0
aI1
aI0
aa(lp49
I1
aI0
aI1
aI0
aI1
aI0
aI0
aI0
aI0
aI0
aI0
aa(lp50
I0
aI0
aI0
aI1
aI1
aI0
aI1
aI0
aI1
aI0
aI0
aa(lp51
I0
aI1
aI0
aI0
aI0
aI0
aI0
aI1
aI1
aI1
aI0
aa(lp52
I1
aI0
aI1
aI1
aI1
aI0
aI0
aI1
aI1
aI1
aI0
aa(lp53
I1
aI0
aI0
aI1
aI0
aI0
aI0
aI0
aI1
aI0
aI0
aa(lp54
I1
aI1
aI1
aI1
aI0
aI0
aI0
aI0
aI0
aI0
aI0
aa(lp55
I0
aI1
aI0
aI1
aI1
aI0
aI1
aI0
aI1
aI1
aI0
aa(lp56
I0
aI0
aI1
aI0
aI1
aI0
aI0
aI0
aI0
aI1
aI0
aa(lp57
I1
aI1
aI0
aI1
aI1
aI0
aI1
aI0
aI1
aI0
aI0
aa(lp58
I1
aI0
aI1
aI0
aI1
aI0
aI1
aI0
aI1
aI0
aI0
aa(lp59
I1
aI0
aI1
aI1
aI0
aI0
aI1
aI0
aI1
aI0
aI0
aa(lp60
I1
aI0
aI0
aI1
aI0
aI0
aI0
aI1
aI0
aI0
aI0
aa(lp61
I0
aI0
aI0
aI1
aI0
aI0
aI1
aI0
aI1
aI0
aI0
aa(lp62
I0
aI0
aI1
aI0
aI1
aI0
aI1
aI1
aI1
aI0
aI0
aa(lp63
I0
aI0
aI0
aI0
aI0
aI0
aI1
aI1
aI0
aI0
aI0
aa(lp64
I0
aI1
aI1
aI1
aI1
aI0
aI0
aI1
aI1
aI1
aI0
aa(lp65
I0
aI1
aI1
aI1
aI1
aI0
aI1
aI0
aI1
aI1
aI0
aa(lp66
I1
aI0
aI1
aI0
aI1
aI0
aI1
aI1
aI0
aI0
aI0
aa(lp67
I0
aI0
aI0
aI0
aI1
aI0
aI1
aI1
aI0
aI0
aI0
aa(lp68
I0
aI1
aI1
aI0
aI1
aI0
aI0
aI0
aI0
aI0
aI0
aa(lp69
I1
aI0
aI0
aI0
aI1
aI0
aI1
aI1
aI1
aI0
aI0
aa(lp70
I1
aI1
aI0
aI0
aI0
aI0
aI0
aI1
aI1
aI1
aI0
aa(lp71
I1
aI0
aI1
aI0
aI1
aI0
aI0
aI0
aI1
aI1
aI0
aa(lp72
I1
aI1
aI0
aI0
aI0
aI0
aI0
aI1
aI0
aI1
aI0
aa(lp73
I1
aI1
aI0
aI1
aI1
aI0
aI1
aI0
aI0
aI0
aI0
aa(lp74
I1
aI1
aI1
aI0
aI1
aI0
aI0
aI0
aI0
aI0
aI0
aa(lp75
I1
aI1
aI1
aI1
aI0
aI0
aI1
aI0
aI0
aI1
aI0
aa(lp76
I1
aI0
aI1
aI1
aI0
aI0
aI1
aI0
aI1
aI0
aI0
aa(lp77
I0
aI1
aI0
aI0
aI1
aI0
aI1
aI1
aI0
aI0
aI0
aa(lp78
I0
aI1
aI0
aI0
aI1
aI0
aI1
aI1
aI0
aI1
aI0
aa(lp79
I1
aI1
aI1
aI0
aI1
aI0
aI1
aI1
aI1
aI1
aI0
aa(lp80
I1
aI0
aI1
aI1
aI0
aI0
aI1
aI0
aI1
aI1
aI0
aa(lp81
I1
aI1
aI1
aI0
aI0
aI0
aI1
aI0
aI1
aI0
aI0
aa(lp82
I1
aI1
aI1
aI0
aI1
aI0
aI1
aI1
aI0
aI1
aI0
aa(lp83
I1
aI0
aI0
aI1
aI0
aI0
aI0
aI1
aI0
aI0
aI0
aa(lp84
I0
aI0
aI0
aI1
aI0
aI0
aI0
aI1
aI1
aI1
aI0
aa(lp85
I1
aI0
aI0
aI0
aI1
aI0
aI0
aI1
aI1
aI0
aI0
aa(lp86
I0
aI0
aI1
aI0
aI0
aI0
aI1
aI1
aI0
aI0
aI0
aa(lp87
I1
aI0
aI0
aI1
aI1
aI0
aI0
aI1
aI0
aI0
aI0
aa(lp88
I0
aI0
aI0
aI1
aI0
aI0
aI0
aI0
aI0
aI1
aI0
aa(lp89
I1
aI1
aI0
aI1
aI0
aI0
aI0
aI0
aI0
aI1
aI0
aa(lp90
I0
aI1
aI0
aI1
aI0
aI0
aI1
aI1
aI1
aI0
aI0
aa(lp91
I0
aI1
aI0
aI0
aI1
aI0
aI0
aI0
aI1
aI1
aI0
aa(lp92
I1
aI0
aI1
aI0
aI1
aI0
aI1
aI0
aI1
aI1
aI0
aa(lp93
I0
aI1
aI1
aI0
aI1
aI0
aI0
aI0
aI0
aI0
aI0
aa(lp94
I1
aI1
aI0
aI0
aI0
aI0
aI0
aI0
aI0
aI1
aI0
aa(lp95
I0
aI1
aI1
aI1
aI1
aI0
aI0
aI1
aI1
aI0
aI0
aa(lp96
I1
aI1
aI1
aI0
aI0
aI0
aI0
aI0
aI1
aI1
aI0
aa(lp97
I0
aI0
aI1
aI0
aI1
aI0
aI1
aI1
aI1
aI1
aI0
aa(lp98
I0
aI1
aI1
aI1
aI0
aI0
aI0
aI1
aI0
aI1
aI0
aa(lp99
I1
aI1
aI0
aI0
aI1
aI0
aI1
aI0
aI0
aI0
aI0
aa(lp100
I1
aI1
aI0
aI1
aI0
aI0
aI0
aI1
aI1
aI1
aI0
aa(lp101
I1
aI1
aI1
aI0
aI1
aI0
aI0
aI0
aI1
aI0
aI0
aa(lp102
I0
aI0
aI0
aI0
aI1
aI0
aI1
aI1
aI0
aI1
aI0
aa(lp103
I0
aI0
aI1
aI1
aI1
aI0
aI0
aI1
aI0
aI1
aI0
aa(lp104
I0
aI0
aI1
aI1
aI1
aI0
aI0
aI1
aI1
aI0
aI0
aa(lp105
I0
aI0
aI0
aI1
aI0
aI0
aI1
aI1
aI1
aI0
aI0
aa(lp106
I0
aI0
aI0
aI0
aI1
aI0
aI1
aI1
aI0
aI0
aI0
aa(lp107
I0
aI0
aI1
aI0
aI1
aI0
aI1
aI1
aI0
aI1
aI0
aa(lp108
I1
aI1
aI1
aI0
aI0
aI0
aI1
aI1
aI0
aI0
aI0
aa(lp109
I0
aI1
aI0
aI0
aI1
aI0
aI1
aI1
aI1
aI1
aI0
aa(lp110
I1
aI1
aI1
aI0
aI0
aI0
aI0
aI1
aI1
aI1
aI0
aa(lp111
I1
aI1
aI0
aI0
aI0
aI0
aI1
aI0
aI1
aI0
aI0
aa(lp112
I1
aI1
aI0
aI1
aI0
aI0
aI0
aI1
aI0
aI1
aI0
aa(lp113
I0
aI0
aI1
aI0
aI1
aI0
aI0
aI0
aI0
aI1
aI0
aa(lp114
I1
aI0
aI0
aI1
aI1
aI0
aI1
aI0
aI1
aI0
aI0
aa(lp115
I1
aI0
aI0
aI1
aI1
aI0
aI1
aI1
aI1
aI1
aI0
aa(lp116
I1
aI0
aI1
aI0
aI1
aI0
aI1
aI1
aI0
aI0
aI0
aa(lp117
I0
aI0
aI0
aI1
aI0
aI0
aI1
aI0
aI0
aI1
aI0
aasS'testExamples'
p118
(lsS'terminalNode'
p119
I1
sS'label'
p120
I0
sS'badExamples'
p121
(lsS'level'
p122
I1
sS'parent'
p123
NsS'name'
p124
S'0'
sba(iML.DecTree.DecTree
DecTreeNode
(dp125
g3
(lp126
(iML.DecTree.DecTree
DecTreeNode
(dp127
g3
(lsg6
F0
sg7
(lsg8
(lp128
(lp129
I1
aI0
aI1
aI0
aI0
aI1
aI1
aI1
aI0
aI0
aI0
aa(lp130
I0
aI0
aI1
aI0
aI1
aI1
aI1
aI0
aI1
aI1
aI0
aa(lp131
I0
aI0
aI1
aI0
aI1
aI1
aI1
aI1
aI1
aI0
aI0
aa(lp132
I1
aI0
aI1
aI0
aI1
aI1
aI0
aI1
aI0
aI0
aI0
aa(lp133
I1
aI0
aI0
aI0
aI0
aI1
aI0
aI0
aI1
aI1
aI0
aa(lp134
I1
aI0
aI0
aI0
aI1
aI1
aI0
aI1
aI1
aI0
aI0
aa(lp135
I1
aI0
aI1
aI0
aI0
aI1
aI0
aI0
aI1
aI0
aI0
aa(lp136
I1
aI0
aI0
aI1
aI0
aI1
aI0
aI0
aI1
aI1
aI0
aa(lp137
I0
aI0
aI0
aI1
aI0
aI1
aI1
aI0
aI0
aI0
aI0
aa(lp138
I1
aI0
aI0
aI1
aI0
aI1
aI1
aI1
aI0
aI0
aI0
aa(lp139
I1
aI0
aI1
aI1
aI0
aI1
aI0
aI0
aI1
aI1
aI0
aa(lp140
I1
aI0
aI1
aI0
aI0
aI1
aI0
aI1
aI1
aI1
aI0
aa(lp141
I0
aI0
aI0
aI0
aI1
aI1
aI1
aI1
aI1
aI0
aI0
aa(lp142
I0
aI0
aI0
aI0
aI0
aI1
aI0
aI0
aI1
aI1
aI0
aa(lp143
I0
aI0
aI0
aI0
aI1
aI1
aI0
aI0
aI1
aI0
aI0
aa(lp144
I1
aI0
aI1
aI1
aI1
aI1
aI0
aI1
aI1
aI0
aI0
aa(lp145
I0
aI0
aI1
aI0
aI1
aI1
aI0
aI1
aI1
aI1
aI0
aa(lp146
I1
aI0
aI1
aI0
aI1
aI1
aI0
aI1
aI0
aI1
aI0
aa(lp147
I0
aI0
aI1
aI0
aI1
aI1
aI1
aI1
aI1
aI1
aI0
aa(lp148
I1
aI0
aI1
aI1
aI1
aI1
aI1
aI0
aI1
aI0
aI0
aa(lp149
I1
aI0
aI0
aI0
aI0
aI1
aI0
aI0
aI0
aI1
aI0
aa(lp150
I1
aI0
aI1
aI0
aI1
aI1
aI0
aI1
aI0
aI1
aI0
aa(lp151
I1
aI0
aI0
aI0
aI1
aI1
aI0
aI1
aI1
aI1
aI0
aa(lp152
I1
aI0
aI1
aI0
aI0
aI1
aI1
aI0
aI0
aI1
aI0
aa(lp153
I0
aI0
aI1
aI0
aI1
aI1
aI1
aI0
aI0
aI0
aI0
aa(lp154
I1
aI0
aI1
aI0
aI0
aI1
aI1
aI0
aI0
aI1
aI0
aa(lp155
I0
aI0
aI1
aI0
aI1
aI1
aI0
aI1
aI0
aI1
aI0
aa(lp156
I1
aI0
aI0
aI0
aI0
aI1
aI0
aI1
aI0
aI1
aI0
aa(lp157
I0
aI0
aI1
aI0
aI1
aI1
aI0
aI0
aI0
aI1
aI0
aa(lp158
I1
aI0
aI1
aI1
aI0
aI1
aI0
aI1
aI0
aI0
aI0
aa(lp159
I0
aI0
aI1
aI1
aI1
aI1
aI1
aI0
aI0
aI1
aI0
aa(lp160
I1
aI0
aI1
aI1
aI1
aI1
aI1
aI0
aI1
aI1
aI0
aa(lp161
I0
aI0
aI1
aI0
aI1
aI1
aI0
aI0
aI0
aI1
aI0
aa(lp162
I0
aI0
aI1
aI1
aI1
aI1
aI1
aI0
aI1
aI1
aI0
aa(lp163
I0
aI0
aI1
aI1
aI0
aI1
aI1
aI0
aI1
aI0
aI0
aa(lp164
I1
aI0
aI0
aI1
aI0
aI1
aI0
aI1
aI1
aI0
aI0
aa(lp165
I0
aI0
aI0
aI0
aI0
aI1
aI1
aI0
aI1
aI0
aI0
aa(lp166
I1
aI0
aI1
aI1
aI0
aI1
aI1
aI0
aI0
aI0
aI0
aa(lp167
I0
aI0
aI1
aI1
aI0
aI1
aI0
aI1
aI0
aI0
aI0
aa(lp168
I1
aI0
aI1
aI0
aI1
aI1
aI0
aI1
aI1
aI1
aI0
aa(lp169
I0
aI0
aI0
aI0
aI0
aI1
aI1
aI1
aI0
aI1
aI0
aa(lp170
I0
aI0
aI1
aI1
aI1
aI1
aI1
aI0
aI1
aI1
aI0
aa(lp171
I0
aI0
aI1
aI0
aI1
aI1
aI1
aI1
aI1
aI0
aI0
aa(lp172
I1
aI0
aI0
aI0
aI1
aI1
aI0
aI1
aI1
aI1
aI0
aa(lp173
I0
aI0
aI0
aI0
aI0
aI1
aI1
aI1
aI0
aI1
aI0
aa(lp174
I0
aI0
aI0
aI1
aI0
aI1
aI1
aI0
aI0
aI0
aI0
aa(lp175
I0
aI0
aI1
aI1
aI1
aI1
aI1
aI1
aI1
aI0
aI0
aa(lp176
I0
aI0
aI1
aI0
aI0
aI1
aI1
aI1
aI0
aI1
aI0
aa(lp177
I0
aI0
aI0
aI1
aI0
aI1
aI1
aI0
aI0
aI0
aI0
aa(lp178
I0
aI0
aI1
aI0
aI0
aI1
aI0
aI1
aI0
aI0
aI0
aasg118
(lsg119
I1
sg120
I0
sg121
(lsg122
I1
sg123
Nsg124
S'0'
sba(iML.DecTree.DecTree
DecTreeNode
(dp179
g3
(lp180
(iML.DecTree.DecTree
DecTreeNode
(dp181
g3
(lsg6
F0
sg7
(lsg8
(lp182
(lp183
I0
aI1
aI0
aI0
aI1
aI1
aI1
aI1
aI1
aI1
aI0
aa(lp184
I0
aI1
aI0
aI1
aI1
aI1
aI1
aI0
aI1
aI0
aI0
aa(lp185
I0
aI1
aI0
aI1
aI0
aI1
aI0
aI1
aI0
aI0
aI0
aa(lp186
I0
aI1
aI0
aI1
aI0
aI1
aI1
aI1
aI0
aI0
aI0
aa(lp187
I0
aI1
aI1
aI0
aI1
aI1
aI1
aI0
aI0
aI1
aI0
aa(lp188
I0
aI1
aI1
aI0
aI1
aI1
aI0
aI0
aI0
aI0
aI0
aa(lp189
I0
aI1
aI1
aI1
aI0
aI1
aI1
aI1
aI0
aI0
aI0
aa(lp190
I0
aI1
aI0
aI1
aI0
aI1
aI0
aI1
aI0
aI1
aI0
aa(lp191
I0
aI1
aI0
aI1
aI1
aI1
aI1
aI0
aI0
aI1
aI0
aa(lp192
I0
aI1
aI1
aI1
aI0
aI1
aI1
aI0
aI0
aI1
aI0
aa(lp193
I0
aI1
aI1
aI1
aI0
aI1
aI1
aI0
aI1
aI0
aI0
aa(lp194
I0
aI1
aI0
aI0
aI1
aI1
aI0
aI1
aI0
aI0
aI0
aa(lp195
I0
aI1
aI1
aI0
aI0
aI1
aI0
aI1
aI1
aI1
aI0
aa(lp196
I0
aI1
aI1
aI1
aI0
aI1
aI1
aI1
aI1
aI1
aI0
aa(lp197
I0
aI1
aI0
aI0
aI0
aI1
aI0
aI0
aI0
aI1
aI0
aa(lp198
I0
aI1
aI1
aI1
aI0
aI1
aI0
aI0
aI0
aI1
aI0
aa(lp199
I0
aI1
aI1
aI0
aI0
aI1
aI0
aI1
aI0
aI1
aI0
aa(lp200
I0
aI1
aI0
aI1
aI1
aI1
aI0
aI1
aI0
aI0
aI0
aa(lp201
I0
aI1
aI0
aI1
aI1
aI1
aI0
aI0
aI0
aI0
aI0
aa(lp202
I0
aI1
aI1
aI1
aI0
aI1
aI0
aI1
aI0
aI1
aI0
aa(lp203
I0
aI1
aI1
aI1
aI0
aI1
aI1
aI1
aI0
aI1
aI0
aa(lp204
I0
aI1
aI0
aI0
aI1
aI1
aI0
aI1
aI0
aI1
aI0
aa(lp205
I0
aI1
aI1
aI0
aI0
aI1
aI0
aI1
aI1
aI1
aI0
aa(lp206
I0
aI1
aI1
aI0
aI0
aI1
aI1
aI1
aI1
aI1
aI0
aa(lp207
I0
aI1
aI0
aI1
aI0
aI1
aI0
aI1
aI0
aI1
aI0
aa(lp208
I0
aI1
aI1
aI0
aI1
aI1
aI1
aI0
aI1
aI0
aI0
aasg118
(lsg119
I1
sg120
I0
sg121
(lsg122
I1
sg123
Nsg124
S'0'
sba(iML.DecTree.DecTree
DecTreeNode
(dp209
g3
(lp210
(iML.DecTree.DecTree
DecTreeNode
(dp211
g3
(lp212
(iML.DecTree.DecTree
DecTreeNode
(dp213
g3
(lsg6
F0
sg7
(lsg8
(lp214
(lp215
I1
aI1
aI0
aI0
aI0
aI1
aI0
aI0
aI0
aI1
aI0
aa(lp216
I1
aI1
aI0
aI0
aI0
aI1
aI0
aI0
aI0
aI1
aI0
aa(lp217
I1
aI1
aI0
aI1
aI0
aI1
aI0
aI0
aI1
aI1
aI0
aa(lp218
I1
aI1
aI0
aI1
aI0
aI1
aI0
aI0
aI0
aI1
aI0
aa(lp219
I1
aI1
aI0
aI0
aI1
aI1
aI0
aI0
aI0
aI0
aI0
aa(lp220
I1
aI1
aI0
aI1
aI1
aI1
aI0
aI0
aI1
aI1
aI0
aasg118
(lsg119
I1
sg120
I0
sg121
(lsg122
I1
sg123
Nsg124
S'0'
sba(iML.DecTree.DecTree
DecTreeNode
(dp221
g3
(lsg6
F0
sg7
(lsg8
(lp222
(lp223
I1
aI1
aI0
aI0
aI0
aI1
aI1
aI0
aI1
aI1
aI1
aa(lp224
I1
aI1
aI0
aI0
aI0
aI1
aI1
aI0
aI1
aI0
aI1
aasg118
(lsg119
I1
sg120
I1
sg121
(lsg122
I1
sg123
Nsg124
S'1'
sbasg6
F0.65002242164835411
sg7
(lsg8
(lp225
g215
ag216
ag223
ag217
ag218
ag219
asg118
(lsg119
I0
sg120
I6
sg121
(lsg122
I1
sg123
Nsg124
S'Var: 6'
sba(iML.DecTree.DecTree
DecTreeNode
(dp226
g3
(lsg6
F0
sg7
(lsg8
(lp227
(lp228
I1
aI1
aI1
aI1
aI0
aI1
aI1
aI0
aI1
aI1
aI1
aa(lp229
I1
aI1
aI1
aI0
aI1
aI1
aI1
aI0
aI0
aI0
aI1
aa(lp230
I1
aI1
aI1
aI0
aI1
aI1
aI0
aI1
aI0
aI1
aI1
aa(lp231
I1
aI1
aI1
aI0
aI1
aI1
aI1
aI0
aI0
aI1
aI1
aa(lp232
I1
aI1
aI1
aI0
aI0
aI1
aI1
aI1
aI0
aI0
aI1
aa(lp233
I1
aI1
aI1
aI0
aI1
aI1
aI1
aI0
aI0
aI0
aI1
aa(lp234
I1
aI1
aI1
aI0
aI0
aI1
aI1
aI1
aI0
aI0
aI1
aa(lp235
I1
aI1
aI1
aI1
aI0
aI1
aI1
aI1
aI0
aI0
aI1
aasg118
(lsg119
I1
sg120
I1
sg121
(lsg122
I1
sg123
Nsg124
S'1'
sbasg6
F1
sg7
(lsg8
(lp236
g215
ag228
ag216
ag223
ag229
ag217
ag218
ag230
ag219
ag231
asg118
(lsg119
I0
sg120
I2
sg121
(lsg122
I1
sg123
Nsg124
S'Var: 2'
sbasg6
F0.66319684023982872
sg7
(lsg8
(lp237
g215
ag228
ag183
ag184
ag185
ag186
ag187
ag188
ag189
ag190
ag191
ag192
ag216
ag193
ag223
ag229
ag194
ag195
ag196
ag197
ag217
ag198
ag218
ag199
ag200
ag230
ag219
ag201
ag231
asg118
(lsg119
I0
sg120
I0
sg121
(lsg122
I1
sg123
Nsg124
S'Var: 0'
sbasg6
F0.39993804743902772
sg7
(lsg8
(lp238
g215
ag129
ag228
ag130
ag131
ag183
ag184
ag185
ag186
ag132
ag187
ag133
ag134
ag188
ag135
ag136
ag137
ag138
ag139
ag189
ag140
ag141
ag190
ag142
ag191
ag192
ag216
ag143
ag144
ag145
ag146
ag147
ag148
ag193
ag149
ag150
ag223
ag229
ag151
ag152
ag194
ag153
ag154
ag195
ag196
ag197
ag155
ag217
ag156
ag198
ag218
ag199
ag157
ag200
ag230
ag158
ag219
ag159
ag160
ag201
ag161
ag231
ag162
asg118
(lsg119
I0
sg120
I1
sg121
(lsg122
I1
sg123
Nsg124
S'Var: 1'
sbasg6
F0.21988771218053432
sg7
(lp239
g215
ag129
ag10
ag11
ag12
ag13
ag14
ag15
ag16
ag228
ag17
ag18
ag19
ag20
ag130
ag21
ag22
ag131
ag23
ag24
ag25
ag183
ag184
ag26
ag27
ag185
ag28
ag186
ag132
ag187
ag29
ag133
ag30
ag134
ag31
ag32
ag33
ag188
ag135
ag34
ag136
ag137
ag35
ag36
ag37
ag38
ag39
ag138
ag40
ag41
ag139
ag42
ag43
ag189
ag44
ag140
ag45
ag46
ag141
ag190
ag142
ag191
ag47
ag48
ag192
ag49
ag50
ag216
ag51
ag52
ag53
ag54
ag143
ag144
ag145
ag55
ag146
ag147
ag148
ag193
ag56
ag57
ag58
ag59
ag60
ag61
ag62
ag149
ag63
ag150
ag64
ag65
ag223
ag66
ag229
ag151
ag152
ag194
ag67
ag153
ag68
ag69
ag154
ag195
ag196
ag197
ag70
ag155
ag217
ag156
ag198
ag218
ag199
ag157
ag71
ag72
ag73
ag74
ag200
ag230
ag75
ag76
ag77
ag78
ag79
ag80
ag81
ag82
ag158
ag219
ag159
ag83
ag160
ag84
ag85
ag201
ag161
ag86
ag87
ag231
ag88
ag162
asg8
g239
sg118
(lp240
g89
ag90
ag232
ag163
ag91
ag224
ag164
ag92
ag93
ag94
ag165
ag202
ag95
ag203
ag166
ag233
ag96
ag97
ag204
ag205
ag206
ag98
ag99
ag100
ag101
ag102
ag103
ag167
ag104
ag168
ag234
ag207
ag169
ag235
ag105
ag208
ag106
ag107
ag170
ag108
ag171
ag109
ag110
ag111
ag172
ag173
ag112
ag220
ag113
ag174
ag114
ag175
ag115
ag116
ag176
ag177
ag117
ag178
asg119
I0
sg120
I5
sg121
(lsg122
I0
sg123
Nsg124
S'Var: 5'
sS'_nResultCodes'
p241
I2
sb.